(dp0
S'wIsarI_1'
p1
(lp2
S'wIsarI_1'
p3
aS'third_1'
p4
aS''
p5
ag5
ag5
asS'xaPZwara_1'
p6
(lp7
S'xaPZwara_1'
p8
aS'office_2'
p9
ag5
ag5
ag5
asS'jala_1'
p10
(lp11
S'jala_1'
p12
aS'water_1'
p13
ag5
ag5
ag5
asS'reMgane_wAlA_jaMtu_1'
p14
(lp15
S'reMgane_wAlA_jaMtu_1'
p16
aS'reptile_1'
p17
ag5
ag5
aS'reptilien_1'
p18
asS'jaMgala_1'
p19
(lp20
S'jaMgala_1'
p21
aS'forest_1'
p22
ag5
ag5
ag5
asS'JUTa_1'
p23
(lp24
S'JUTa_1'
p25
aS'lie_2'
p26
ag5
ag5
aS'l\xc3\xbcge_1'
p27
asS'rasoI+Gara_1'
p28
(lp29
S'rasoI+Gara_1'
p30
aS'kitchen_1'
p31
ag5
ag5
ag5
asS'paraMwu_1'
p32
(lp33
S'paraMwu_1'
p34
aS'but_1'
p35
ag5
ag5
ag5
asS'jUta_1'
p36
(lp37
S'jUta_1'
p38
aS'lie_2'
p39
ag5
ag5
ag5
asS'xarAjZa_1'
p40
(lp41
S'xarAjZa_1'
p42
aS'drawer_1'
p43
ag5
ag5
ag5
asS'GaniRTa_1'
p44
(lp45
S'GaniRTa_1'
p46
aS'close_1'
p47
ag5
ag5
ag5
asS'kursI_1'
p48
(lp49
S'kursI_1'
p50
aS'chair_1'
p51
ag5
ag5
aS'stuhl_1'
p52
asS'bahuwa_3'
p53
(lp54
S'bahuwa_3'
p55
aS'too-much_3'
p56
ag5
ag5
ag5
asS'bahuwa_2'
p57
(lp58
S'bahuwa_2'
p59
aS'very_2'
p60
ag5
ag5
aS'sehr_1'
p61
asS'bahuwa_1'
p62
(lp63
S'bahuwa_1'
p64
aS'many_1'
p65
ag5
ag5
ag5
asS'nayA_1'
p66
(lp67
S'nayA_1'
p68
aS'new_1'
p69
ag5
ag5
aS'neu_1'
p70
asS'nawIjA_1'
p71
(lp72
S'nawIjA_1'
p73
aS'result_1'
p74
ag5
ag5
ag5
asS'bahuwa_5'
p75
(lp76
S'bahuwa_5'
p77
aS'much_1'
p78
ag5
ag5
ag5
asS'Daka_1'
p79
(lp80
S'Daka_1'
p81
aS'cover_1'
p82
ag5
ag5
ag5
asS'PutabAla_1'
p83
(lp84
S'PutabAla_1'
p85
aS'football_1'
p86
ag5
ag5
ag5
asS'soca_1'
p87
(lp88
S'soca_1'
p89
aS'think_1'
p90
ag5
ag5
aS'denken_1'
p91
asS'wakalIPZa_1'
p92
(lp93
S'wakalIPZa_1'
p94
aS'trouble_2'
p95
ag5
ag5
ag5
asS'PZEksa_1'
p96
(lp97
S'PZEksa_1'
p98
aS'fax_1'
p99
ag5
ag5
ag5
asS'puswaka_1'
p100
(lp101
S'puswaka_1'
p102
aS'book_2'
p103
ag5
ag5
ag5
asS'wEyAra+ho_1'
p104
(lp105
S'wEyAra+ho_1'
p106
aS'pave_1'
p107
ag5
ag5
ag5
asS'bAzsurI_1'
p108
(lp109
S'bAzsurI_1'
p110
aS'flute_1'
p111
ag5
ag5
ag5
asS'kEse_1'
p112
(lp113
S'kEse_1'
p114
aS'how_2'
p115
ag5
ag5
ag5
asS'ina-xinoM_1'
p116
(lp117
S'ina-xinoM_1'
p118
aS'these-days_1'
p119
ag5
ag5
ag5
asS'xarpaNa_1'
p120
(lp121
S'xarpaNa_1'
p122
aS'mirror_1'
p123
ag5
ag5
ag5
asS'kaBI-nahIM_1'
p124
(lp125
S'kaBI-nahIM_1'
p126
aS'never_1'
p127
ag5
ag5
aS'nie_1'
p128
asS'wEra_1'
p129
(lp130
S'wEra_1'
p131
aS'swim_1'
p132
ag5
ag5
aS'schwimmen_1'
p133
asS'gA_1'
p134
(lp135
S'gA_1'
p136
aS'sing_1'
p137
ag5
ag5
aS'singen_1'
p138
asS'kriketa+KilAdZI_1'
p139
(lp140
S'kriketa+KilAdZI_1'
p141
aS'cricket-player_1'
p142
ag5
ag5
ag5
asS'saMskqwa_1'
p143
(lp144
S'saMskqwa_1'
p145
aS'sanskrit_1'
p146
ag5
ag5
ag5
asS'Beja_1'
p147
(lp148
S'Beja_1'
p149
aS'send_1'
p150
ag5
ag5
ag5
asS'Orawa_1'
p151
(lp152
S'Orawa_1'
p153
aS'lady_1'
p154
ag5
ag5
ag5
asS'tEba_1'
p155
(lp156
S'tEba_1'
p157
aS'tab_1'
p158
ag5
ag5
ag5
asS'pawra_1'
p159
(lp160
S'pawra_1'
p161
aS'leaf_1'
p162
ag5
ag5
ag5
asS'diplomA_1'
p163
(lp164
S'diplomA_1'
p165
aS'diploma_1'
p166
ag5
ag5
ag5
asS'xasa_1'
p167
(lp168
S'xasa_1'
p169
aS'ten_1'
p170
ag5
ag5
ag5
asS'telIPona+nambara_1'
p171
(lp172
S'telIPona+nambara_1'
p173
aS'telephone-number_1'
p174
ag5
ag5
ag5
asS'vicAra_1'
p175
(lp176
S'vicAra_1'
p177
aS'idea_1'
p178
ag5
ag5
aS'idee_1'
p179
asS'buA_1'
p180
(lp181
S'buA_1'
p182
aS'aunt_1'
p183
ag5
ag5
ag5
asS'vicAra_2'
p184
(lp185
S'vicAra_1'
p186
aS'thought_3'
p187
ag5
ag5
ag5
asS'cAkalet_1'
p188
(lp189
S'cAkalet_1'
p190
aS'chocolate_1'
p191
ag5
ag5
ag5
asS'vijFAna_1'
p192
(lp193
S'vijFAna_1'
p194
aS'science_1'
p195
ag5
ag5
ag5
asS'gubbArA_1'
p196
(lp197
S'gubbArA_1'
p198
aS'balloon_1'
p199
ag5
ag5
aS'ballon_1'
p200
asS'CodZa_2'
p201
(lp202
S'CodZa_2'
p203
aS'drop_2'
p204
ag5
ag5
ag5
asS'CodZa_1'
p205
(lp206
S'CodZa_1'
p207
aS'leave_1'
p208
ag5
ag5
ag5
asS'roja_1'
p209
(lp210
S'roja_1'
p211
aS'daily_2'
p212
ag5
ag5
aS't\xc3\xa4glich_1'
p213
asS'hara-eka_1'
p214
(lp215
S'hara-eka_1'
p216
aS'each_1'
p217
ag5
ag5
aS'jed_1'
p218
asS'cAvala_1'
p219
(lp220
S'cAvala_1'
p221
aS'rice_1'
p222
ag5
ag5
aS'Reis_1'
p223
asS'rojAnA_1'
p224
(lp225
S'rojAnA_1'
p226
aS'daily_1'
p227
ag5
ag5
ag5
asS'mAra_2'
p228
(lp229
S'mAra_2'
p230
aS'shoot_2'
p231
ag5
ag5
ag5
asS'agalI_1'
p232
(lp233
S'agalI_1'
p234
aS'next_2'
p235
ag5
ag5
ag5
asS'muhara_1'
p236
(lp237
S'muhara_1'
p238
aS'coin_1'
p239
ag5
ag5
ag5
asS'kOA_1'
p240
(lp241
S'kOA_1'
p242
aS'crow_1'
p243
ag5
ag5
ag5
asS'motA_1'
p244
(lp245
S'motA_1'
p246
aS'fat_1'
p247
ag5
ag5
ag5
asS'muKya_1'
p248
(lp249
S'muKya_1'
p250
aS'main_1'
p251
ag5
ag5
ag5
asS'xaPZanA_1'
p252
(lp253
S'xaPZanA_1'
p254
aS'bury_1'
p255
ag5
ag5
ag5
asS'calA_1'
p256
(lp257
S'calA_1'
p258
aS'make walk_1'
p259
ag5
ag5
ag5
asS'cAha_2'
p260
(lp261
S'cAha_2'
p262
aS'flat_2'
p263
ag5
ag5
ag5
asS'cAha_3'
p264
(lp265
S'cAha_3'
p266
aS'should_3'
p267
ag5
ag5
aS'sollen_1'
p268
asS'cAha_1'
p269
(lp270
S'cAha_1'
p271
aS'want_1'
p272
ag5
ag5
aS'wollen_1'
p273
asS'koI_2'
p274
(lp275
S'koI_2'
p276
aS'any_2'
p277
ag5
ag5
ag5
asS'koI_1'
p278
(lp279
S'koI_1'
p280
aS'any_1'
p281
ag5
ag5
ag5
asS'SiRya_1'
p282
(lp283
S'SiRya_1'
p284
aS'disciple_1'
p285
ag5
ag5
ag5
asS'para_2'
p286
(lp287
S'para_2'
p288
aS'but_2'
p289
ag5
ag5
ag5
asS'baccA_1'
p290
(lp291
S'baccA_1'
p292
aS'baby_1'
p293
ag5
ag5
ag5
asS'baccA_2'
p294
(lp295
S'baccA_2'
p296
aS'child_2'
p297
ag5
ag5
aS'kind_1'
p298
asS'iMstItyUtsa_1'
p299
(lp300
S'iMstItyUtsa_1'
p301
aS'institute_1'
p302
ag5
ag5
ag5
asS'AyA_1'
p303
(lp304
S'AyA_1'
p305
aS'maid_1'
p306
ag5
ag5
ag5
asS'roka_1'
p307
(lp308
S'roka_1'
p309
aS'prevent_1'
p310
ag5
ag5
ag5
asS'BOMka_1'
p311
(lp312
S'BOMka_1'
p313
aS'bark_1'
p314
ag5
ag5
aS'bellen_1'
p315
asS'tokarI_1'
p316
(lp317
S'tokarI_1'
p318
aS'basket_1'
p319
ag5
ag5
ag5
asS'so_1'
p320
(lp321
S'so_1'
p322
aS'sleep_1'
p323
ag5
ag5
aS'schlafen_1'
p324
asS'Label'
p325
(lp326
S'Hindi'
p327
aS'Eng'
p328
aS'Marathi'
p329
aS'Tamil'
p330
aS'German'
p331
asS'vyakwiwva_1'
p332
(lp333
S'vyakwiwva_1'
p334
aS'personality_1'
p335
ag5
ag5
ag5
asS'basa+addA_1'
p336
(lp337
S'basa+addA_1'
p338
aS'bus-stop_1'
p339
ag5
ag5
aS'bushaltestelle_1'
p340
asS'sahAyawA+kara_1'
p341
(lp342
S'sahAyawA+kara_1'
p343
aS'help_2'
p344
ag5
ag5
ag5
asS'svAxiRta_1'
p345
(lp346
S'svAxiRta_1'
p347
aS'delicious_1'
p348
ag5
ag5
aS'k\xc3\xb6stlich_1'
p349
asS'cUhA_1'
p350
(lp351
S'cUhA_1'
p352
aS'mouse_1'
p353
ag5
ag5
aS'maus_1'
p354
asS'pqWvI_1'
p355
(lp356
S'pqWvI_1'
p357
aS'earth_1'
p358
ag5
ag5
aS'Erde_1'
p359
asS'lomadZI_1'
p360
(lp361
S'lomadZI_1'
p362
aS'fox_1'
p363
ag5
ag5
ag5
asS'makAna_2'
p364
(lp365
S'makAna_2'
p366
aS'flat_3'
p367
ag5
ag5
ag5
asS'pawra_2'
p368
(lp369
S'pawra_2'
p370
aS'letter_2'
p371
ag5
ag5
aS'brief_1'
p372
asS'mqwaka_1'
p373
(lp374
S'mqwaka_1'
p375
aS'dead_1'
p376
ag5
ag5
ag5
asS'agalA_1'
p377
(lp378
S'agalA_1'
p379
aS'next_1'
p380
ag5
ag5
ag5
asS'nixrAlu_1'
p381
(lp382
S'nixrAlu_1'
p383
aS'sleepy_1'
p384
ag5
ag5
aS'schl\xc3\xa4frig_1'
p385
asS'aMgreja_1'
p386
(lp387
S'aMgreja_1'
p388
aS'british_1'
p389
ag5
ag5
ag5
asS'aMgUra_1'
p390
(lp391
S'aMgUra_1'
p392
aS'grape_1'
p393
ag5
ag5
aS'traube_1'
p394
asS'hisAba_1'
p395
(lp396
S'hisAba_1'
p397
aS'arithmetic_1'
p398
ag5
ag5
ag5
asS'sUta_1'
p399
(lp400
S'sUta_1'
p401
aS'suit_1'
p402
ag5
ag5
ag5
asS'bAlaka_1'
p403
(lp404
S'bAlaka_1'
p405
aS'boy_1'
p406
ag5
ag5
aS'jung_1'
p407
asS'pareSAnI_2'
p408
(lp409
S'pareSAnI_2'
p410
aS'problem_2'
p411
ag5
ag5
aS'problem_1'
p412
asS'maranA_1'
p413
(lp414
S'maranA_1'
p415
aS'die_1'
p416
ag5
ag5
aS'sterben_1'
p417
asS'apaharaNa+kara_1'
p418
(lp419
S'apaharaNa+kara_1'
p420
aS'kidnap_1'
p421
ag5
ag5
ag5
asS'betA_1'
p422
(lp423
S'betA_1'
p424
aS'son_1'
p425
ag5
ag5
aS'sohn_1'
p426
asS'xoharA_1'
p427
(lp428
S'xoharA_1'
p429
aS'revise_1'
p430
ag5
ag5
ag5
asS'nAma_2'
p431
(lp432
S'nAma_2'
p433
aS'reputation_2'
p434
ag5
ag5
ag5
asS'nOkara_1'
p435
(lp436
S'nOkara_1'
p437
aS'servant_1'
p438
ag5
ag5
ag5
asS'padZosa_1'
p439
(lp440
S'padZosa_1'
p441
aS'neighbour_1'
p442
ag5
ag5
ag5
asS'caba_1'
p443
(lp444
S'caba_1'
p445
aS'chew_1'
p446
ag5
ag5
ag5
asS'walavAra_1'
p447
(lp448
S'walavAra_1'
p449
aS'sword_1'
p450
ag5
ag5
ag5
asS'SAxISuxA_1'
p451
(lp452
S'SAxISuxA_1'
p453
aS'married_1'
p454
ag5
ag5
ag5
asS'AramBa+ho_1'
p455
(lp456
S'AramBa+ho_1'
p457
aS'begin_1'
p458
ag5
ag5
ag5
asS'mahAna_1'
p459
(lp460
S'mahAna_1'
p461
aS'great_2'
p462
ag5
ag5
ag5
asS'KadA+ho_1'
p463
(lp464
S'KadA+ho_1'
p465
aS'stand_1'
p466
ag5
ag5
ag5
asS'pasanxa+kara_1'
p467
(lp468
S'pasanxa+kara_1'
p469
aS'like_3'
p470
ag5
ag5
ag5
asS'AKirI_1'
p471
(lp472
S'AKirI_1'
p473
aS'last_1'
p474
ag5
ag5
ag5
asS'imArawa_1'
p475
(lp476
S'imArawa_1'
p477
aS'building_1'
p478
ag5
ag5
aS'geb\xc3\xa4ude_1'
p479
asS'BUkA_1'
p480
(lp481
S'BUkA_1'
p482
aS'hungry_1'
p483
ag5
ag5
aS'hungrig_1'
p484
asS'samAcAra_1'
p485
(lp486
S'samAcAra_1'
p487
aS'news_2'
p488
ag5
ag5
ag5
asS'prajA_1'
p489
(lp490
S'prajA_1'
p491
aS'people_2'
p492
ag5
ag5
ag5
asS'sawya_1'
p493
(lp494
S'sawya_1'
p495
aS'truth_1'
p496
ag5
ag5
ag5
asS'xOrA+kara_1'
p497
(lp498
S'xOrA+kara_1'
p499
aS'visit_2'
p500
ag5
ag5
ag5
asS'Kela_2'
p501
(lp502
S'Kela_2'
p503
aS'play_2'
p504
ag5
ag5
ag5
asS'Kela_3'
p505
(lp506
S'Kela_3'
p507
aS'game_3'
p508
ag5
ag5
ag5
asS'Kela_1'
p509
(lp510
S'Kela_1'
p511
aS'play_1'
p512
ag5
ag5
ag5
asS'xavAwa_1'
p513
(lp514
S'xavAwa_1'
p515
aS'inkpot_1'
p516
ag5
ag5
ag5
asS'kamISana_1'
p517
(lp518
S'kamISana_1'
p519
aS'commission_1'
p520
ag5
ag5
ag5
asS'pariSramI_2'
p521
(lp522
S'pariSramI_2'
p523
aS'hard-working_1'
p524
ag5
ag5
ag5
asS'barPa_1'
p525
(lp526
S'barPa_1'
p527
aS'snow_1'
p528
ag5
ag5
ag5
asS'sahana+kara_1'
p529
(lp530
S'sahana+kara_1'
p531
aS'endure_1'
p532
ag5
ag5
ag5
asS'pariSramI_1'
p533
(lp534
S'pariSramI_1'
p535
aS'hard-worker_1'
p536
ag5
ag5
ag5
asS'maKKana_1'
p537
(lp538
S'maKKana_1'
p539
aS'butter_1'
p540
ag5
ag5
ag5
asS'samarWana_2'
p541
(lp542
S'samarWana_2'
p543
aS'favor_2'
p544
ag5
ag5
ag5
asS'kAma_1'
p545
(lp546
S'kAma_1'
p547
aS'work_2'
p548
ag5
ag5
ag5
asS'bUDZA_1'
p549
(lp550
S'bUDZA_1'
p551
aS'old_1'
p552
ag5
ag5
ag5
asS'bUDZA_2'
p553
(lp554
S'bUDZA_2'
p555
aS'old_5'
p556
ag5
ag5
ag5
asS'vyakwi_1'
p557
(lp558
S'vyakwi_1'
p559
aS'man_2'
p560
ag5
ag5
ag5
asS'raMga_1'
p561
(lp562
S'raMga_1'
p563
aS'color_1'
p564
ag5
ag5
ag5
asS'aBI_2'
p565
(lp566
S'aBI_1'
p567
aS'yet_1'
p568
ag5
ag5
aS'schon_1'
p569
asS'roeMxAra_1'
p570
(lp571
S'roeMxAra_1'
p572
aS'furry_1'
p573
ag5
ag5
ag5
asS'dandA_1'
p574
(lp575
S'dandA_1'
p576
aS'stick_1'
p577
ag5
ag5
ag5
asS'balavAna_1'
p578
(lp579
S'balavAna_1'
p580
aS'strong_1'
p581
ag5
ag5
aS'stark_1'
p582
asS'GAsa_1'
p583
(lp584
S'GAsa_1'
p585
aS'grass_1'
p586
ag5
ag5
ag5
asS'SAma_1'
p587
(lp588
S'SAma_1'
p589
aS'evening_1'
p590
ag5
ag5
ag5
asS'bacawa+KAwA_1'
p591
(lp592
S'bacawa+KAwA_1'
p593
aS'saving-account_1'
p594
ag5
ag5
ag5
asS'janma_1'
p595
(lp596
S'janma_1'
p597
aS'birth_1'
p598
ag5
ag5
ag5
asS'SikAra+kara_1'
p599
(lp600
S'SikAra+kara_1'
p601
aS'hunt_1'
p602
ag5
ag5
ag5
asS'banA_2'
p603
(lp604
S'banA_2'
p605
aS'cook_2'
p606
ag5
ag5
aS'kocht_1'
p607
asS'wEyArI+kara_1'
p608
(lp609
S'wEyArI+kara_1'
p610
aS'prepare_1'
p611
ag5
ag5
ag5
asS'sunxara_1'
p612
(lp613
S'sunxara_1'
p614
aS'beautiful_2'
p615
ag5
ag5
ag5
asS'vqxXa_1'
p616
(lp617
S'vqxXa_1'
p618
aS'old_4'
p619
ag5
ag5
ag5
asS'garIba_1'
p620
(lp621
S'garIba_1'
p622
aS'poor_1'
p623
ag5
ag5
aS'arm_1'
p624
asS'bilkula_1'
p625
(lp626
S'bilkula_1'
p627
aS'perfect_1'
p628
ag5
ag5
ag5
asS'samarWana+kara_1'
p629
(lp630
S'samarWana+karanA_1'
p631
aS'support_1'
p632
ag5
ag5
aS'unterst\xc3\xbctzen_1'
p633
asS'hIrA_1'
p634
(lp635
S'hIrA_1'
p636
aS'diamond_1'
p637
ag5
ag5
ag5
asS'gaMxA_1'
p638
(lp639
S'gaMxA_1'
p640
aS'dirty_1'
p641
ag5
ag5
ag5
asS'raKa_1'
p642
(lp643
S'raKa_1'
p644
aS'put_1'
p645
ag5
ag5
aS'legen_1'
p646
asS'sadZaka_1'
p647
(lp648
S'sadZaka_1'
p649
aS'road_2'
p650
ag5
ag5
ag5
asS'aspatAla_1'
p651
(lp652
S'aspatAla_1'
p653
aS'hospital_1'
p654
ag5
ag5
ag5
asS'xe_1'
p655
(lp656
S'xe_1'
p657
aS'give_1'
p658
ag5
ag5
aS'geben_1'
p659
asS'proPesara_1'
p660
(lp661
S'proPesara_1'
p662
aS'professor_1'
p663
ag5
ag5
ag5
asS'wASa_1'
p664
(lp665
S'wASa_1'
p666
aS'card_1'
p667
ag5
ag5
ag5
asS'gadZabadZa_1'
p668
(lp669
S'gadZabadZa_1'
p670
aS'wrong_1'
p671
ag5
ag5
ag5
asS'gudZiyA_1'
p672
(lp673
S'gudZiyA_1'
p674
aS'doll_1'
p675
ag5
ag5
aS'puppe_1'
p676
asS'mExAna_1'
p677
(lp678
S'mExAna_1'
p679
aS'ground_1'
p680
ag5
ag5
aS'erde_1'
p681
asS'aba_1'
p682
(lp683
S'aba_1'
p684
aS'now_1'
p685
ag5
ag5
ag5
asS'axBuwa_1'
p686
(lp687
S'axBuwa_1'
p688
aS'strange_1'
p689
ag5
ag5
ag5
asS'bAla+saBA_1'
p690
(lp691
S'bAla+saBA_1'
p692
aS'child-assembly_1'
p693
ag5
ag5
ag5
asS'jA_2'
p694
(lp695
S'jA_2'
p696
aS'attend_2'
p697
ag5
ag5
ag5
asS'sIKa_1'
p698
(lp699
S'sIKa_1'
p700
aS'learn_1'
p701
ag5
ag5
aS'lernen_1'
p702
asS'dinara_1'
p703
(lp704
S'dinara_1'
p705
aS'dinner_1'
p706
ag5
ag5
ag5
asS'PUla_1'
p707
(lp708
S'PUla_1'
p709
aS'flower_1'
p710
ag5
ag5
aS'blume_1'
p711
asS'rAjA_1'
p712
(lp713
S'rAjA_1'
p714
aS'king_1'
p715
ag5
ag5
ag5
asS'kAlA_1'
p716
(lp717
S'kAlA_1'
p718
aS'black_1'
p719
ag5
ag5
ag5
asS'kiwanA_1'
p720
(lp721
S'kiwanA_1'
p722
aS'how-much_1'
p723
ag5
ag5
ag5
asS'prakAra_1'
p724
(lp725
S'prakAra_1'
p726
aS'form_2'
p727
ag5
ag5
ag5
asS'prakAra_2'
p728
(lp729
S'prakAra_2'
p730
aS'type_2'
p731
ag5
ag5
ag5
asS'billI_1'
p732
(lp733
S'billI_1'
p734
aS'cat_1'
p735
ag5
ag5
aS'katze_1'
p736
asS'SOkIna_1'
p737
(lp738
S'SOkIna_1'
p739
aS'fond_1'
p740
ag5
ag5
ag5
asS'xo-sO_1'
p741
(lp742
S'xo-sO_1'
p743
aS'200_1'
p744
ag5
ag5
ag5
asS'stIla_1'
p745
(lp746
S'stIla_1'
p747
aS'steel_1'
p748
ag5
ag5
ag5
asS'cidiyA_1'
p749
(lp750
S'cidiyA_1'
p751
aS'bird_1'
p752
ag5
ag5
aS'vogel_1'
p753
asS'Ayu_2'
p754
(lp755
S'Ayu_2'
p756
aS'old_2'
p757
ag5
ag5
aS'alt_1'
p758
asS'Ayu_1'
p759
(lp760
S'Ayu_1'
p761
aS'age_1'
p762
ag5
ag5
ag5
asS'lAla_1'
p763
(lp764
S'lAla_1'
p765
aS'red_1'
p766
ag5
ag5
ag5
asS'mAlI_1'
p767
(lp768
S'mAlI_1'
p769
aS'gardener_1'
p770
ag5
ag5
aS'g\xc3\xa4rtner_1'
p771
asS'jZyAxA_1'
p772
(lp773
S'jZyAxA_1'
p774
aS'high_1'
p775
ag5
ag5
ag5
asS'isa_1'
p776
(lp777
S'isa_1'
p778
aS'this_1'
p779
ag5
ag5
ag5
asS'mAlUma+ho_1'
p780
(lp781
S'mAlUma+ho_1'
p782
aS'seem_1'
p783
ag5
ag5
ag5
asS'xina_1'
p784
(lp785
S'xina_1'
p786
aS'day_1'
p787
ag5
ag5
aS'tag_1'
p788
asS'asahanIya_1'
p789
(lp790
S'asahanIya_1'
p791
aS'unbearable_1'
p792
ag5
ag5
ag5
asS'yuxXa+kara_1'
p793
(lp794
S'yuxXa+kara_1'
p795
aS'fight_1'
p796
ag5
ag5
aS'k\xc3\xa4mpfen_1'
p797
asS'KayAla_2'
p798
(lp799
S'KayAla_2'
p800
aS'opinion_2'
p801
ag5
ag5
ag5
asS'mawiBrama_1'
p802
(lp803
S'mawiBrama_1'
p804
aS'hallucination_1'
p805
ag5
ag5
ag5
asS'KayAla_1'
p806
(lp807
S'KayAla_1'
p808
aS'thought_1'
p809
ag5
ag5
ag5
asS'ParavarI_1'
p810
(lp811
S'ParavarI_1'
p812
aS'Feb_1'
p813
ag5
ag5
ag5
asS'mahilA_1'
p814
(lp815
S'mahilA_1'
p816
aS'woman_1'
p817
ag5
ag5
ag5
asS'ina_1'
p818
(lp819
S'ina_1'
p820
aS'these_1'
p821
ag5
ag5
aS'dies_1'
p822
asS'PZEmilI_1'
p823
(lp824
S'PZEmilI_1'
p825
aS'family_1'
p826
ag5
ag5
ag5
asS'gAzva_1'
p827
(lp828
S'gAzva_1'
p829
aS'village_1'
p830
ag5
ag5
ag5
asS'XanI_1'
p831
(lp832
S'XanI_1'
p833
aS'rich_1'
p834
ag5
ag5
ag5
asS'mArca_1'
p835
(lp836
S'mArca_1'
p837
aS'Mar_1'
p838
ag5
ag5
ag5
asS'bijZanesa_1'
p839
(lp840
S'bijZanesa_1'
p841
aS'business_1'
p842
ag5
ag5
ag5
asS'lekcara_1'
p843
(lp844
S'lekcara_1'
p845
aS'lecture_1'
p846
ag5
ag5
ag5
asS'PAila_1'
p847
(lp848
S'PAila_1'
p849
aS'file_1'
p850
ag5
ag5
ag5
asS'svAsWya_1'
p851
(lp852
S'svAsWya_1'
p853
aS'health_1'
p854
ag5
ag5
ag5
asS'manA_1'
p855
(lp856
S'manA_1'
p857
aS'refuse_1'
p858
ag5
ag5
aS'weigern_1'
p859
asS'xOda_1'
p860
(lp861
S'xOda_1'
p862
aS'run_1'
p863
ag5
ag5
aS'rennen_1'
p864
asS'hE_1'
p865
(lp866
S'hE_1'
p867
aS'have_1'
p868
ag5
ag5
aS'haben_1'
p869
asS'hE_2'
p870
(lp871
S'hE_2'
p872
aS'be_3'
p873
ag5
ag5
aS'ist_1'
p874
asS'sAikila_1'
p875
(lp876
S'sAikila_1'
p877
aS'bicycle_1'
p878
ag5
ag5
ag5
asS'nakaxa-rupayA_1'
p879
(lp880
S'nakaxa-rupayA_1'
p881
aS'cash_2'
p882
ag5
ag5
ag5
asS'sAikila_2'
p883
(lp884
S'sAikila_2'
p885
aS'cycle_2'
p886
ag5
ag5
ag5
asS'barasAwa_1'
p887
(lp888
S'barasAwa_1'
p889
aS'rain_1'
p890
ag5
ag5
ag5
asS'bacapana_1'
p891
(lp892
S'bacapana_1'
p893
aS'childhood_1'
p894
ag5
ag5
ag5
asS'kAlI+saPexa_1'
p895
(lp896
S'kAlI+saPexa_1'
p897
aS'black and white_1'
p898
ag5
ag5
ag5
asS'kuSala_1'
p899
(lp900
S'kuSala_1'
p901
aS'adept_1'
p902
ag5
ag5
ag5
asS'suJAva+xe_1'
p903
(lp904
S'suJAva+xe_1'
p905
aS'suggest_2'
p906
ag5
ag5
ag5
asS'kisa_1'
p907
(lp908
S'kisa_1'
p909
aS'which_3'
p910
ag5
ag5
ag5
asS'jAna_1'
p911
(lp912
S'jAna_1'
p913
aS'know_1'
p914
ag5
ag5
aS'kennen_1'
p915
asS'varNana+kara_1'
p916
(lp917
S'varNana+kara_1'
p918
aS'explain_1'
p919
ag5
ag5
ag5
asS'mahasUsa+kara_1'
p920
(lp921
S'mahasUsa+kara_1'
p922
aS'feel_2'
p923
ag5
ag5
ag5
asS'tAima+tebala_1'
p924
(lp925
S'tAima+tebala_1'
p926
aS'time-table_1'
p927
ag5
ag5
ag5
asS'kaNTasWa+kara_1'
p928
(lp929
S'kaNTasWa+kara_1'
p930
aS'memorize_1'
p931
ag5
ag5
ag5
asS'viyoga_1'
p932
(lp933
S'viyoga_1'
p934
aS'separation_1'
p935
ag5
ag5
ag5
asS'nArAjZa_1'
p936
(lp937
S'nArAjZa_1'
p938
aS'angry_1'
p939
ag5
ag5
ag5
asS'gAnA_1'
p940
(lp941
S'gAnA_1'
p942
aS'song_1'
p943
ag5
ag5
aS'lied_1'
p944
asS'gAnA_2'
p945
(lp946
S'gAnA_2'
p947
aS'music_2'
p948
ag5
ag5
aS'musik_1'
p949
asS'nArAjZa_2'
p950
(lp951
S'nArAjZa_2'
p952
aS'angry_2'
p953
ag5
ag5
ag5
asS'Axawa_1'
p954
(lp955
S'Axawa_1'
p956
aS'habit_1'
p957
ag5
ag5
ag5
asS'wakalIPZa+xe_1'
p958
(lp959
S'wakalIPZa+xe_1'
p960
aS'trouble_1'
p961
ag5
ag5
aS'schwierigkeit_1'
p962
asS'le_1'
p963
(lp964
S'le_1'
p965
aS'take_1'
p966
ag5
ag5
ag5
asS'pICA_1'
p967
(lp968
S'pICA_1'
p969
aS'chase_1'
p970
ag5
ag5
aS'jagen_1'
p971
asS'dUba_1'
p972
(lp973
S'dUba_1'
p974
aS'drown_1'
p975
ag5
ag5
aS'ertrinken_1'
p976
asS'senA_1'
p977
(lp978
S'senA_1'
p979
aS'army_1'
p980
ag5
ag5
ag5
asS'svaBAva_1'
p981
(lp982
S'svaBAva_1'
p983
aS'nature_1'
p984
ag5
ag5
ag5
asS'svaBAva_2'
p985
(lp986
S'svaBAva_2'
p987
aS'temper_2'
p988
ag5
ag5
ag5
asS'Pira_2'
p989
(lp990
S'Pira_2'
p991
aS'again_1'
p992
ag5
ag5
aS'wieder_1'
p993
asS'bola_2'
p994
(lp995
S'bola_2'
p996
aS'tell_3'
p997
ag5
ag5
ag5
asS'bola_1'
p998
(lp999
S'bola_1'
p1000
aS'speak_1'
p1001
ag5
ag5
aS'sprechen_1'
p1002
asS'samaJa_3'
p1003
(lp1004
S'samaJa_3'
p1005
aS'consider_1'
p1006
ag5
ag5
ag5
asS'paracejZa+mEnejara_1'
p1007
(lp1008
S'paracejZa+mEnejara_1'
p1009
aS'purchase-manager_1'
p1010
ag5
ag5
ag5
asS'Upara_1'
p1011
(lp1012
S'Upara_1'
p1013
aS'on_1'
p1014
ag5
ag5
aS'auf_1'
p1015
asS'apaharaNa_1'
p1016
(lp1017
S'apaharaNa_1'
p1018
aS'kidnap_2'
p1019
ag5
ag5
ag5
asS'manxira_1'
p1020
(lp1021
S'manxira_1'
p1022
aS'temple_1'
p1023
ag5
ag5
ag5
asS'sAmaMjasya_1'
p1024
(lp1025
S'sAmaMjasya_1'
p1026
aS'harmony_1'
p1027
ag5
ag5
aS'harmonisch_1'
p1028
asS'sAla_1'
p1029
(lp1030
S'sAla_1'
p1031
aS'year_1'
p1032
ag5
ag5
aS'jahr_1'
p1033
asS'haPwA_1'
p1034
(lp1035
S'haPwA_1'
p1036
aS'week_1'
p1037
ag5
ag5
ag5
asS'KuSa_1'
p1038
(lp1039
S'KuSa_1'
p1040
aS'happy_1'
p1041
ag5
ag5
aS'gl\xc3\xbccklich_1'
p1042
asS'AlasI_1'
p1043
(lp1044
S'AlasI_1'
p1045
aS'lazy_1'
p1046
ag5
ag5
ag5
asS'pahacAna_1'
p1047
(lp1048
S'pahacAna_1'
p1049
aS'recognize_1'
p1050
ag5
ag5
aS'erkennen_1'
p1051
asS'baDZaI_1'
p1052
(lp1053
S'baDZaI_1'
p1054
aS'carpenter_1'
p1055
ag5
ag5
aS'tischler_1'
p1056
asS'muSkila_1'
p1057
(lp1058
S'muSkila_1'
p1059
aS'hard_2'
p1060
ag5
ag5
ag5
asS'XanurXara_1'
p1061
(lp1062
S'XanurXara_1'
p1063
aS'archer_1'
p1064
ag5
ag5
ag5
asS'GaNtA_1'
p1065
(lp1066
S'GaNtA_1'
p1067
aS'hour_2'
p1068
ag5
ag5
ag5
asS'kakRA_1'
p1069
(lp1070
S'kakRA_1'
p1071
aS'class_1'
p1072
ag5
ag5
ag5
asS'bana_2'
p1073
(lp1074
S'bana_2'
p1075
aS'become_2'
p1076
ag5
ag5
aS'werden_1'
p1077
asS'bana_1'
p1078
(lp1079
S'bana_1'
p1080
aS'be_2'
p1081
ag5
ag5
ag5
asS'sakwA_1'
p1082
(lp1083
S'sakwA_1'
p1084
aS'can_1'
p1085
ag5
ag5
aS'k\xc3\xb6nnen_1'
p1086
asS'aMxAjana_1'
p1087
(lp1088
S'aMxAjana_1'
p1089
aS'approximate_1'
p1090
ag5
ag5
ag5
asS'KarIxa_2'
p1091
(lp1092
S'KarIxa_2'
p1093
aS'purchase_2'
p1094
ag5
ag5
ag5
asS'bAla+gIwa_1'
p1095
(lp1096
S'bAla+gIwa_1'
p1097
aS'nursery-rhyme_1'
p1098
ag5
ag5
ag5
asS'pawWara_1'
p1099
(lp1100
S'pawWara_1'
p1101
aS'stone_1'
p1102
ag5
ag5
ag5
asS'KaragoSa_1'
p1103
(lp1104
S'KaragoSa_1'
p1105
aS'rabbit_1'
p1106
ag5
ag5
ag5
asS'kAma+kara_1'
p1107
(lp1108
S'kAma+kara_1'
p1109
aS'work_1'
p1110
ag5
ag5
aS'arbeiten_1'
p1111
asS'pUraka_1'
p1112
(lp1113
S'pUraka_1'
p1114
aS'complement_1'
p1115
ag5
ag5
ag5
asS'vakIla_1'
p1116
(lp1117
S'vakIla_1'
p1118
aS'lawyer_1'
p1119
ag5
ag5
ag5
asS'piwAjI_1'
p1120
(lp1121
S'piwAjI_1'
p1122
aS'father_2'
p1123
ag5
ag5
ag5
asS'raha_1'
p1124
(lp1125
S'raha_1'
p1126
aS'live_1'
p1127
ag5
ag5
aS'leben_1'
p1128
asS'cIja_1'
p1129
(lp1130
S'cIja_1'
p1131
aS'thing_1'
p1132
ag5
ag5
aS'ding_1'
p1133
asS'pariSrama_1'
p1134
(lp1135
S'pariSrama_1'
p1136
aS'work_4'
p1137
ag5
ag5
ag5
asS'ASA+kara_1'
p1138
(lp1139
S'ASA+kara_1'
p1140
aS'expect_2'
p1141
ag5
ag5
ag5
asS'pakRa_1'
p1142
(lp1143
S'pakRa_1'
p1144
aS'favor_1'
p1145
ag5
ag5
ag5
asS'gudiyA_1'
p1146
(lp1147
S'gudiyA_1'
p1148
aS'doll_2'
p1149
ag5
ag5
ag5
asS'jinxagI_1'
p1150
(lp1151
S'jinxagI_1'
p1152
aS'life_2'
p1153
ag5
ag5
ag5
asS'curA_1'
p1154
(lp1155
S'curA_1'
p1156
aS'steal_2'
p1157
ag5
ag5
ag5
asS'kArya_1'
p1158
(lp1159
S'kArya_1'
p1160
aS'work_3'
p1161
ag5
ag5
ag5
asS'xaravAjZA_1'
p1162
(lp1163
S'xaravAjZA_1'
p1164
aS'door_1'
p1165
ag5
ag5
ag5
asS'kAleja_1'
p1166
(lp1167
S'kAleja_1'
p1168
aS'collage_1'
p1169
ag5
ag5
ag5
asS'pena_1'
p1170
(lp1171
S'pena_1'
p1172
aS'pen_3'
p1173
ag5
ag5
ag5
asS'mAlUma_1'
p1174
(lp1175
S'mAlUma_1'
p1176
aS'know_4'
p1177
ag5
ag5
ag5
asS'motara_1'
p1178
(lp1179
S'motara_1'
p1180
aS'car_1'
p1181
ag5
ag5
aS'auto_1'
p1182
asS'lambA_2'
p1183
(lp1184
S'lambA_2'
p1185
aS'tall_1'
p1186
ag5
ag5
aS'gro\xc3\x9f_1'
p1187
asS'kyoM_1'
p1188
(lp1189
S'kyoM_1'
p1190
aS'why_1'
p1191
ag5
ag5
ag5
asS'EsA_1'
p1192
(lp1193
S'EsA_1'
p1194
aS'such_1'
p1195
ag5
ag5
ag5
asS'miwra_1'
p1196
(lp1197
S'miwra_1'
p1198
aS'friend_1'
p1199
ag5
ag5
ag5
asS'KidakI_1'
p1200
(lp1201
S'KidakI_1'
p1202
aS'window_1'
p1203
ag5
ag5
aS'fenster_1'
p1204
asS'AXyAwmika_1'
p1205
(lp1206
S'AXyAwmika_1'
p1207
aS'religious_1'
p1208
ag5
ag5
ag5
asS'lena-xena_1'
p1209
(lp1210
S'lena-xena_1'
p1211
aS'dealings_1'
p1212
ag5
ag5
ag5
asS'bImAra_1'
p1213
(lp1214
S'bImAra_1'
p1215
aS'ill_1'
p1216
ag5
ag5
aS'krank_1'
p1217
asS'svIkAra+kara_1'
p1218
(lp1219
S'svIkAra+kara_1'
p1220
aS'accept_1'
p1221
ag5
ag5
aS'akzeptieren_1'
p1222
asS'pAndulipi_1'
p1223
(lp1224
S'pAndulipi_1'
p1225
aS'manuscript_1'
p1226
ag5
ag5
ag5
asS'xurGatanA_1'
p1227
(lp1228
S'xurGatanA_1'
p1229
aS'accident_1'
p1230
ag5
ag5
aS'Unfall_1'
p1231
asS'iswemAla+kara_1'
p1232
(lp1233
S'iswemAla+kara_1'
p1234
aS'use_1'
p1235
ag5
ag5
ag5
asS'nqwya+kara_1'
p1236
(lp1237
S'nqwya+kara_1'
p1238
aS'dance_1'
p1239
ag5
ag5
aS'tanzen_1'
p1240
asS'kamarA_1'
p1241
(lp1242
S'kamarA_1'
p1243
aS'room_1'
p1244
ag5
ag5
ag5
asS'wakalIPZa+kara_1'
p1245
(lp1246
S'wakalIPZa+kara_1'
p1247
aS'bother_1'
p1248
ag5
ag5
ag5
asS'pakadZa_1'
p1249
(lp1250
S'pakadZa_1'
p1251
aS'catch_1'
p1252
ag5
ag5
ag5
asS'jAnA_1'
p1253
(lp1254
S'jAnA_1'
p1255
aS'going_1'
p1256
ag5
ag5
ag5
asS'SukravAra_1'
p1257
(lp1258
S'SukravAra_1'
p1259
aS'Fri_1'
p1260
ag5
ag5
ag5
asS'DUMDa_1'
p1261
(lp1262
S'DUMDa_1'
p1263
aS'seek_1'
p1264
ag5
ag5
ag5
asS'murxA_1'
p1265
(lp1266
S'murxA_1'
p1267
aS'dead_1'
p1268
ag5
ag5
aS'tot_1'
p1269
asS'CuttI_1'
p1270
(lp1271
S'CuttI_1'
p1272
aS'holiday_1'
p1273
ag5
ag5
ag5
asS'bAwacIwa_1'
p1274
(lp1275
S'bAwacIwa_1'
p1276
aS'talking_2'
p1277
ag5
ag5
ag5
asS'#kOna_2'
p1278
(lp1279
S'#kOna_2'
p1280
aS'which_2'
p1281
ag5
ag5
ag5
asS'APataranUna_1'
p1282
(lp1283
S'APataranUna_1'
p1284
aS'afternoon_1'
p1285
ag5
ag5
ag5
asS'parIkRA_2'
p1286
(lp1287
S'parIkRA_2'
p1288
aS'exam_2'
p1289
ag5
ag5
ag5
asS'KilAdZI_1'
p1290
(lp1291
S'KilAdZI_1'
p1292
aS'player_1'
p1293
ag5
ag5
ag5
asS'xaravAjA_1'
p1294
(lp1295
S'xaravAjA_1'
p1296
aS'door_1'
p1297
ag5
ag5
ag5
asS'acCA_2'
p1298
(lp1299
S'acCA_2'
p1300
aS'nice_2'
p1301
ag5
ag5
aS'nett_1'
p1302
asS'acCA_1'
p1303
(lp1304
S'acCA_1'
p1305
aS'good_1'
p1306
ag5
ag5
aS'gut_1'
p1307
asS'wala_1'
p1308
(lp1309
S'wala_1'
p1310
aS'floor_2'
p1311
ag5
ag5
ag5
asS'mawalaba+ho_1'
p1312
(lp1313
S'mawalaba+ho_1'
p1314
aS'mean_1'
p1315
ag5
ag5
ag5
asS'wAzbA_1'
p1316
(lp1317
S'wAzbA_1'
p1318
aS'copper_1'
p1319
ag5
ag5
ag5
asS'nahA_1'
p1320
(lp1321
S'nahA_1'
p1322
aS'bathe_1'
p1323
ag5
ag5
aS'baden_1'
p1324
asS'pEsA_1'
p1325
(lp1326
S'pEsA_1'
p1327
aS'money_1'
p1328
ag5
ag5
aS'geld_1'
p1329
asS'inAma_1'
p1330
(lp1331
S'inAma_1'
p1332
aS'award_1'
p1333
ag5
ag5
ag5
asS'narsa_1'
p1334
(lp1335
S'narsa_1'
p1336
aS'nurse_1'
p1337
ag5
ag5
ag5
asS'GadZI_3'
p1338
(lp1339
S'GadZI_3'
p1340
aS'watch_3'
p1341
ag5
ag5
ag5
asS'mEdama_1'
p1342
(lp1343
S'mEdama_1'
p1344
aS'madam_1'
p1345
ag5
ag5
ag5
asS'kaMgana_1'
p1346
(lp1347
S'kaMgana_1'
p1348
aS'bangle_1'
p1349
ag5
ag5
ag5
asS'iwihAsa_1'
p1350
(lp1351
S'iwihAsa_1'
p1352
aS'history_1'
p1353
ag5
ag5
ag5
asS'kisAna_1'
p1354
(lp1355
S'kisAna_1'
p1356
aS'farmer_1'
p1357
ag5
ag5
aS'Bauer_1'
p1358
asS'sapanA_1'
p1359
(lp1360
S'sapanA_1'
p1361
aS'dream_1'
p1362
ag5
ag5
ag5
asS'pawi_1'
p1363
(lp1364
S'pawi_1'
p1365
aS'husband_1'
p1366
ag5
ag5
ag5
asS'barabAxa_1'
p1367
(lp1368
S'barabAxa_1'
p1369
aS'waste_2'
p1370
ag5
ag5
ag5
asS'bUDZI_1'
p1371
(lp1372
S'bUDZI_1'
p1373
aS'old_3'
p1374
ag5
ag5
ag5
asS'Tahara_1'
p1375
(lp1376
S'Tahara_1'
p1377
aS'stay_1'
p1378
ag5
ag5
aS'bleiben_1'
p1379
asS'WA_1'
p1380
(lp1381
S'WA_1'
p1382
aS'be_1'
p1383
ag5
ag5
aS'dort_1'
p1384
asS'anAWAlaya_1'
p1385
(lp1386
S'anAWAlaya_1'
p1387
aS'orphanage_1'
p1388
ag5
ag5
ag5
asS'PEla_2'
p1389
(lp1390
S'PEla_2'
p1391
aS'prevail_2'
p1392
ag5
ag5
ag5
asS'PEla_1'
p1393
(lp1394
S'PEla_1'
p1395
aS'spread_1'
p1396
ag5
ag5
ag5
asS'irAxA_1'
p1397
(lp1398
S'irAxA_1'
p1399
aS'intention_1'
p1400
ag5
ag5
ag5
asS'jZarA_1'
p1401
(lp1402
S'jZarA_1'
p1403
aS'please_1'
p1404
ag5
ag5
ag5
asS'bijalI+kI+katOwI_1'
p1405
(lp1406
S'bijalI+kI+katOwI_1'
p1407
aS'power-cut_1'
p1408
ag5
ag5
ag5
asS'JagadZA+kara_1'
p1409
(lp1410
S'JagadZA+kara_1'
p1411
aS'quarrel_1'
p1412
ag5
ag5
ag5
asS'bahumUlya_1'
p1413
(lp1414
S'bahumUlya_1'
p1415
aS'valuable_1'
p1416
ag5
ag5
ag5
asS'udZA_1'
p1417
(lp1418
S'udZA_1'
p1419
aS'fly_1'
p1420
ag5
ag5
ag5
asS'SikAra_1'
p1421
(lp1422
S'SikAra_1'
p1423
aS'hunt_2'
p1424
ag5
ag5
ag5
asS'paDa_2'
p1425
(lp1426
S'paDa_2'
p1427
aS'read_3'
p1428
ag5
ag5
ag5
asS'paDa_1'
p1429
(lp1430
S'paDa_1'
p1431
aS'study_3'
p1432
ag5
ag5
ag5
asS'piCalA_1'
p1433
(lp1434
S'piCalA_1'
p1435
aS'last_2'
p1436
ag5
ag5
ag5
asS'xopahara_1'
p1437
(lp1438
S'xopahara_1'
p1439
aS'noon_1'
p1440
ag5
ag5
ag5
asS'kEsA_1'
p1441
(lp1442
S'kEsA_1'
p1443
aS'how_1'
p1444
ag5
ag5
ag5
asS'nAca_1'
p1445
(lp1446
S'nAca_1'
p1447
aS'dance_1'
p1448
ag5
ag5
ag5
asS'majZaxUrI_1'
p1449
(lp1450
S'majZaxUrI_1'
p1451
aS'wage_1'
p1452
ag5
ag5
ag5
asS'kampyUtara+korsa_1'
p1453
(lp1454
S'kampyUtara+korsa_1'
p1455
aS'computer-course_1'
p1456
ag5
ag5
ag5
asS'lakadZI_1'
p1457
(lp1458
S'lakadZI_1'
p1459
aS'wood_1'
p1460
ag5
ag5
ag5
asS'oYPisa_1'
p1461
(lp1462
S'oYPisa_1'
p1463
aS'office_1'
p1464
ag5
ag5
ag5
asS'prAnwa_1'
p1465
(lp1466
S'prAnwa_1'
p1467
aS'area_2'
p1468
ag5
ag5
ag5
asS'sAzpa_1'
p1469
(lp1470
S'sAzpa_1'
p1471
aS'snake_1'
p1472
ag5
ag5
ag5
asS'naMbara_1'
p1473
(lp1474
S'naMbara_1'
p1475
aS'number_1'
p1476
ag5
ag5
ag5
asS'GantA_1'
p1477
(lp1478
S'GantA_1'
p1479
aS'hour_1'
p1480
ag5
ag5
aS'stunde_1'
p1481
asS'inwajAra+kara_1'
p1482
(lp1483
S'inwajAra+kara_1'
p1484
aS'wait_1'
p1485
ag5
ag5
ag5
asS'tEleMta_1'
p1486
(lp1487
S'tEleMta_1'
p1488
aS'ability_1'
p1489
ag5
ag5
ag5
asS'saMparka+kara_1'
p1490
(lp1491
S'saMparka+kara_1'
p1492
aS'contact_1'
p1493
ag5
ag5
ag5
asS'samaJa_1'
p1494
(lp1495
S'samaJa_1'
p1496
aS'understand_1'
p1497
ag5
ag5
ag5
asS'smArta_1'
p1498
(lp1499
S'smArta_1'
p1500
aS'smart_1'
p1501
ag5
ag5
ag5
asS'samaJa_2'
p1502
(lp1503
S'samaJa_2'
p1504
aS'know_2'
p1505
ag5
ag5
ag5
asS'aBI_1'
p1506
(lp1507
S'aBI_1'
p1508
aS'just_1'
p1509
ag5
ag5
aS'gerade_1'
p1510
asS'calacciwra_1'
p1511
(lp1512
S'calacciwra_1'
p1513
aS'movie_2'
p1514
ag5
ag5
ag5
asS'CaH_1'
p1515
(lp1516
S'CaH_1'
p1517
aS'six_1'
p1518
ag5
ag5
ag5
asS'banA_1'
p1519
(lp1520
S'banA_1'
p1521
aS'make_1'
p1522
ag5
ag5
aS'machen_1'
p1523
asS'kAgaja_1'
p1524
(lp1525
S'kAgaja_1'
p1526
aS'paper_2'
p1527
ag5
ag5
ag5
asS'aba_2'
p1528
(lp1529
S'aba_2'
p1530
aS'now_2'
p1531
ag5
ag5
ag5
asS'akelApana_1'
p1532
(lp1533
S'akelApana_1'
p1534
aS'lonely_1'
p1535
ag5
ag5
ag5
asS'bIja_1'
p1536
(lp1537
S'bIja_1'
p1538
aS'seed_1'
p1539
ag5
ag5
ag5
asS'POrana_1'
p1540
(lp1541
S'POrana_1'
p1542
aS'immediately_1'
p1543
ag5
ag5
ag5
asS'ASaMkA_1'
p1544
(lp1545
S'ASaMkA_1'
p1546
aS'fear_1'
p1547
ag5
ag5
ag5
asS'mAra_1'
p1548
(lp1549
S'mAra_1'
p1550
aS'kill_1'
p1551
ag5
ag5
aS't\xc3\xb6ten_1'
p1552
asS'nagara_1'
p1553
(lp1554
S'nagara_1'
p1555
aS'town_1'
p1556
ag5
ag5
aS'stadt_1'
p1557
asS'nOsenA_1'
p1558
(lp1559
S'nOsenA_1'
p1560
aS'navy_1'
p1561
ag5
ag5
ag5
asS'Bramana+kara_1'
p1562
(lp1563
S'Bramana+kara_1'
p1564
aS'travel_1'
p1565
ag5
ag5
ag5
asS'vard+prosesiMga_1'
p1566
(lp1567
S'vard+prosesiMga_1'
p1568
aS'word-processing_1'
p1569
ag5
ag5
ag5
asS'sEra-sapAtA_1'
p1570
(lp1571
S'sEra-sapAtA_1'
p1572
aS'picnic_1'
p1573
ag5
ag5
ag5
asS'pahAdZa_1'
p1574
(lp1575
S'pahAdZa_1'
p1576
aS'table_2'
p1577
ag5
ag5
ag5
asS'asisteMta+mEnejara_1'
p1578
(lp1579
S'asisteMta+mEnejara_1'
p1580
aS'Assistant-manager_1'
p1581
ag5
ag5
ag5
asS'kampanI_1'
p1582
(lp1583
S'kampanI_1'
p1584
aS'company_1'
p1585
ag5
ag5
ag5
asS'ladZakI_1'
p1586
(lp1587
S'ladZakI_1'
p1588
aS'girl_2'
p1589
ag5
ag5
ag5
asS'trEPZika+lAIta_1'
p1590
(lp1591
S'trEPZika+lAIta_1'
p1592
aS'traffic-light_1'
p1593
ag5
ag5
ag5
asS'goxa+le_1'
p1594
(lp1595
S'goxa+le_1'
p1596
aS'adopt_1'
p1597
ag5
ag5
ag5
asS'maI_1'
p1598
(lp1599
S'maI_1'
p1600
aS'May_1'
p1601
ag5
ag5
ag5
asS'BUKA_1'
p1602
(lp1603
S'BUKA_1'
p1604
aS'hungry_1'
p1605
ag5
ag5
aS'hunger_1'
p1606
asS'jamA+kara_1'
p1607
(lp1608
S'jamA+kara_1'
p1609
aS'deposit_1'
p1610
ag5
ag5
ag5
asS'projekta_1'
p1611
(lp1612
S'projekta_1'
p1613
aS'project_1'
p1614
ag5
ag5
ag5
asS'kitI_1'
p1615
(lp1616
S'kitI_1'
p1617
aS'kitty_1'
p1618
ag5
ag5
ag5
asS'sOxA_1'
p1619
(lp1620
S'sOxA_1'
p1621
aS'deal_1'
p1622
ag5
ag5
ag5
asS'vixyAlaya_1'
p1623
(lp1624
S'vixyAlaya_1'
p1625
aS'school_2'
p1626
ag5
ag5
ag5
asS'kala_2'
p1627
(lp1628
S'kala_2'
p1629
aS'yesterday_2'
p1630
ag5
ag5
aS'gestern_1'
p1631
asS'soPzA_1'
p1632
(lp1633
S'soPzA_1'
p1634
aS'couch_1'
p1635
ag5
ag5
aS'sofa_1'
p1636
asS'kala_1'
p1637
(lp1638
S'kala_1'
p1639
aS'tomorrow_1'
p1640
ag5
ag5
ag5
asS'kaba_1'
p1641
(lp1642
S'kaba_1'
p1643
aS'when_2'
p1644
ag5
ag5
ag5
asS'paDZA_1'
p1645
(lp1646
S'paDZA_1'
p1647
aS'teach_1'
p1648
ag5
ag5
ag5
asS'PZArma_1'
p1649
(lp1650
S'PZArma_1'
p1651
aS'form_1'
p1652
ag5
ag5
ag5
asS'lABaxAyaka_1'
p1653
(lp1654
S'lABaxAyaka_1'
p1655
aS'useful_1'
p1656
ag5
ag5
ag5
asS'Kabara_1'
p1657
(lp1658
S'Kabara_1'
p1659
aS'news_1'
p1660
ag5
ag5
ag5
asS'jA_3'
p1661
(lp1662
S'jA_3'
p1663
aS'leave_1'
p1664
ag5
ag5
aS'ab+fahren_1'
p1665
asS'jA_1'
p1666
(lp1667
S'jA_1'
p1668
aS'go_1'
p1669
ag5
ag5
aS'gehen_1'
p1670
asS'Bojana_1'
p1671
(lp1672
S'Bojana_1'
p1673
aS'food_1'
p1674
ag5
ag5
ag5
asS'jA_4'
p1675
(lp1676
S'jA_4'
p1677
aS'leave_1'
p1678
ag5
ag5
aS'ab+reisen_1'
p1679
asS'rAwa_1'
p1680
(lp1681
S'rAwa_1'
p1682
aS'night_1'
p1683
ag5
ag5
ag5
asS'rAwa_2'
p1684
(lp1685
S'rAwa_2'
p1686
aS'tonight_2'
p1687
ag5
ag5
ag5
asS'baMxa+kara_1'
p1688
(lp1689
S'baMxa+kara_1'
p1690
aS'close_2'
p1691
ag5
ag5
ag5
asS'rePZareMsa_1'
p1692
(lp1693
S'rePZareMsa_1'
p1694
aS'reference_1'
p1695
ag5
ag5
ag5
asS'suna_2'
p1696
(lp1697
S'suna_2'
p1698
aS'hear_2'
p1699
ag5
ag5
ag5
asS'jalxI_2'
p1700
(lp1701
S'jalxI_2'
p1702
aS'early_2'
p1703
ag5
ag5
ag5
asS'jalxI_1'
p1704
(lp1705
S'jalxI_1'
p1706
aS'quick_1'
p1707
ag5
ag5
aS'schnell_1'
p1708
asS'kriketa_1'
p1709
(lp1710
S'kriketa_1'
p1711
aS'cricket_1'
p1712
ag5
ag5
ag5
asS'peSA_1'
p1713
(lp1714
S'peSA_1'
p1715
aS'profession_1'
p1716
ag5
ag5
ag5
asS'hoSiyAra_1'
p1717
(lp1718
S'hoSiyAra_1'
p1719
aS'clever_2'
p1720
ag5
ag5
ag5
asS'nirxayI_1'
p1721
(lp1722
S'nirxayI_1'
p1723
aS'cruel_1'
p1724
ag5
ag5
ag5
asS'kAgajZAwa_1'
p1725
(lp1726
S'kAgajZAwa_1'
p1727
aS'paper_1'
p1728
ag5
ag5
ag5
asS'ladakI_1'
p1729
(lp1730
S'ladakI_1'
p1731
aS'girl_1'
p1732
ag5
ag5
aS'm\xc3\xa4dchen_1'
p1733
asS'PIlda_1'
p1734
(lp1735
S'PIlda_1'
p1736
aS'field_1'
p1737
ag5
ag5
ag5
asS'bagIcA_1'
p1738
(lp1739
S'bgIcA_1'
p1740
aS'garden_1'
p1741
ag5
ag5
aS'gerten_1'
p1742
asS'vewana_1'
p1743
(lp1744
S'vewana_1'
p1745
aS'salary_1'
p1746
ag5
ag5
ag5
asS'sAmAnya_1'
p1747
(lp1748
S'sAmAnya_1'
p1749
aS'normal_1'
p1750
ag5
ag5
ag5
asS'nikAla_2'
p1751
(lp1752
S'nikAla_2'
p1753
aS'launch_2'
p1754
ag5
ag5
ag5
asS'nikAla_1'
p1755
(lp1756
S'nikAla_1'
p1757
aS'bring_2'
p1758
ag5
ag5
ag5
asS'hameSA_1'
p1759
(lp1760
S'hameSA_1'
p1761
aS'always_1'
p1762
ag5
ag5
aS'immer_1'
p1763
asS'Kuxa_2'
p1764
(lp1765
S'Kuxa_2'
p1766
aS'him_2'
p1767
ag5
ag5
ag5
asS'KarrAte+le_1'
p1768
(lp1769
S'KarrAte+le_1'
p1770
aS'snore_1'
p1771
ag5
ag5
aS'schnarchen_1'
p1772
asS'Kuxa_1'
p1773
(lp1774
S'Kuxa_1'
p1775
aS'you_1'
p1776
ag5
ag5
ag5
asS'jarUrI_1'
p1777
(lp1778
S'jarUrI_1'
p1779
aS'important_1'
p1780
ag5
ag5
ag5
asS'mAwA_1'
p1781
(lp1782
S'mAwA_1'
p1783
aS'mother_1'
p1784
ag5
ag5
aS'mutter_1'
p1785
asS'Xo_1'
p1786
(lp1787
S'Xo_1'
p1788
aS'wash_1'
p1789
ag5
ag5
aS'waschen_1'
p1790
asS'nirXana_1'
p1791
(lp1792
S'nirXana_1'
p1793
aS'poor_2'
p1794
ag5
ag5
ag5
asS'aXyApikA_1'
p1795
(lp1796
S'aXyApikA_1'
p1797
aS'teacher_2'
p1798
ag5
ag5
ag5
asS'aBinna_1'
p1799
(lp1800
S'aBinna_1'
p1801
aS'intimate_1'
p1802
ag5
ag5
ag5
asS'BAI_1'
p1803
(lp1804
S'BAI_1'
p1805
aS'brother_1'
p1806
ag5
ag5
ag5
asS'anupasWiwa_1'
p1807
(lp1808
S'anupasWiwa_1'
p1809
aS'absent_1'
p1810
ag5
ag5
aS'abwesend_1'
p1811
asS'CAwra_1'
p1812
(lp1813
S'CAwra_1'
p1814
aS'student_1'
p1815
ag5
ag5
ag5
asS'raMgIna+telIvijZana_1'
p1816
(lp1817
S'raMgIna+telIvijZana_1'
p1818
aS'color-television_1'
p1819
ag5
ag5
ag5
asS'rAjaXAnI_1'
p1820
(lp1821
S'rAjaXAnI_1'
p1822
aS'capital_1'
p1823
ag5
ag5
ag5
asS'jI_1'
p1824
(lp1825
S'jI_1'
p1826
aS'yes_2'
p1827
ag5
ag5
ag5
asS'cAya_1'
p1828
(lp1829
S'cAya_1'
p1830
aS'tea_1'
p1831
ag5
ag5
ag5
asS'kalam_1'
p1832
(lp1833
S'kalam_1'
p1834
aS'pen_1'
p1835
ag5
ag5
ag5
asS'vivAha+kara_1'
p1836
(lp1837
S'vivAha+kara_1'
p1838
aS'marry_1'
p1839
ag5
ag5
aS'heiraten_1'
p1840
asS'praSaMsA+kara_2'
p1841
(lp1842
S'praSaMsA+kara_2'
p1843
aS'praise_2'
p1844
ag5
ag5
ag5
asS'praSaMsA+kara_1'
p1845
(lp1846
S'praSaMsA+kara_1'
p1847
aS'compliment_1'
p1848
ag5
ag5
ag5
asS'ladakA_1'
p1849
(lp1850
S'ladakA_1'
p1851
aS'boy_3'
p1852
ag5
ag5
ag5
asS'xUXa_1'
p1853
(lp1854
S'xUXa_1'
p1855
aS'milk_1'
p1856
ag5
ag5
aS'milch_1'
p1857
asS'rupE_1'
p1858
(lp1859
S'rupE_1'
p1860
aS'rupee_1'
p1861
ag5
ag5
ag5
asS'eka_1'
p1862
(lp1863
S'eka_1'
p1864
aS'a_1'
p1865
ag5
ag5
ag5
asS'sWAna_1'
p1866
(lp1867
S'sWAna_1'
p1868
aS'position_1'
p1869
ag5
ag5
ag5
asS'kamIja_1'
p1870
(lp1871
S'kamIja_1'
p1872
aS'shirt_1'
p1873
ag5
ag5
aS'hemd_1'
p1874
asS'aktUbara_1'
p1875
(lp1876
S'aktUbara_1'
p1877
aS'Oct_1'
p1878
ag5
ag5
ag5
asS'bujZurga_1'
p1879
(lp1880
S'bujZurga_1'
p1881
aS'elder_2'
p1882
ag5
ag5
ag5
asS'xAKilA+le_1'
p1883
(lp1884
S'xAKilA+le_1'
p1885
aS'join_3'
p1886
ag5
ag5
ag5
asS'kESa_1'
p1887
(lp1888
S'kESa_1'
p1889
aS'cash_1'
p1890
ag5
ag5
ag5
asS'bo_1'
p1891
(lp1892
S'bo_1'
p1893
aS'sow_1'
p1894
ag5
ag5
ag5
asS'CipAnA_1'
p1895
(lp1896
S'CipAnA_1'
p1897
aS'hide_1'
p1898
ag5
ag5
aS'verstecken_1'
p1899
asS'kOna_1'
p1900
(lp1901
S'kOna_1'
p1902
aS'who_2'
p1903
ag5
ag5
ag5
asS'Bara_1'
p1904
(lp1905
S'Bara_1'
p1906
aS'fill_1'
p1907
ag5
ag5
ag5
asS'mahInA_1'
p1908
(lp1909
S'mahInA_1'
p1910
aS'month_1'
p1911
ag5
ag5
ag5
asS'sara_1'
p1912
(lp1913
S'sara_1'
p1914
aS'sir_1'
p1915
ag5
ag5
ag5
asS'batana_1'
p1916
(lp1917
S'batana_1'
p1918
aS'switch_1'
p1919
ag5
ag5
ag5
asS'jZixa+kara_1'
p1920
(lp1921
S'jZixa+kara_1'
p1922
aS'insist_1'
p1923
ag5
ag5
ag5
asS'jIvana_1'
p1924
(lp1925
S'jIvana_1'
p1926
aS'life_1'
p1927
ag5
ag5
aS'leben_1'
p1928
asS'BIgA_1'
p1929
(lp1930
S'BIgA_1'
p1931
aS'wet_1'
p1932
ag5
ag5
aS'nass_1'
p1933
asS'saba_1'
p1934
(lp1935
S'saba_1'
p1936
aS'all_1'
p1937
ag5
ag5
aS'all_1'
p1938
asS'koSiSa_1'
p1939
(lp1940
S'koSiSa_1'
p1941
aS'try_1'
p1942
ag5
ag5
ag5
asS'lambA_1'
p1943
(lp1944
S'lambA_1'
p1945
aS'long_1'
p1946
ag5
ag5
aS'lang_1'
p1947
asS'PUta_1'
p1948
(lp1949
S'PUta_1'
p1950
aS'pop_1'
p1951
ag5
ag5
aS'platzen'
p1952
asS'sAXAraNa_1'
p1953
(lp1954
S'sAXAraNa_1'
p1955
aS'simple_1'
p1956
ag5
ag5
ag5
asS'BI_2'
p1957
(lp1958
S'BI_2'
p1959
aS'also_1'
p1960
ag5
ag5
aS'auch_1'
p1961
asS'cAlAkI_1'
p1962
(lp1963
S'cAlAkI_1'
p1964
aS'intention_2'
p1965
ag5
ag5
ag5
asS'cora_1'
p1966
(lp1967
S'cora_1'
p1968
aS'thief_1'
p1969
ag5
ag5
aS'dieb_1'
p1970
asS'corI+kara_1'
p1971
(lp1972
S'corI+kara_1'
p1973
aS'steal_1'
p1974
ag5
ag5
ag5
asS'vyakwi_2'
p1975
(lp1976
S'vyakwi_2'
p1977
aS'person_2'
p1978
ag5
ag5
ag5
asS'niranwara_1'
p1979
(lp1980
S'niranwara_1'
p1981
aS'constantly_1'
p1982
ag5
ag5
ag5
asS'makAna_1'
p1983
(lp1984
S'makAna_1'
p1985
aS'home_1'
p1986
ag5
ag5
ag5
asS'gAdZI_1'
p1987
(lp1988
S'gAdZI_1'
p1989
aS'train_1'
p1990
ag5
ag5
ag5
asS'baMxara_1'
p1991
(lp1992
S'baMxara_1'
p1993
aS'monkey_1'
p1994
ag5
ag5
ag5
asS'sanxUka_1'
p1995
(lp1996
S'sanxUka_1'
p1997
aS'box_2'
p1998
ag5
ag5
ag5
asS'wIra_1'
p1999
(lp2000
S'wIra_1'
p2001
aS'bank_2'
p2002
ag5
ag5
ag5
asS'svAxa_1'
p2003
(lp2004
S'svAxa_1'
p2005
aS'taste_1'
p2006
ag5
ag5
ag5
asS'kalAkAra_1'
p2007
(lp2008
S'kalAkAra_1'
p2009
aS'artist_1'
p2010
ag5
ag5
aS'k\xc3\xbcnstler_1'
p2011
asS'Pala_2'
p2012
(lp2013
S'Pala_2'
p2014
aS'result_2'
p2015
ag5
ag5
ag5
asS'praXAnAXyApaka_1'
p2016
(lp2017
S'praXAnAXyApaka_1'
p2018
aS'principal_1'
p2019
ag5
ag5
aS'schulleiter_1'
p2020
asS'kisI_1'
p2021
(lp2022
S'kisI_1'
p2023
aS'some_2'
p2024
ag5
ag5
ag5
asS'xarxa_1'
p2025
(lp2026
S'xarxa_1'
p2027
aS'pain_1'
p2028
ag5
ag5
ag5
asS'yahAz_1'
p2029
(lp2030
S'yahAz_1'
p2031
aS'here_1'
p2032
ag5
ag5
aS'hier_1'
p2033
asS'gira_1'
p2034
(lp2035
S'gira_1'
p2036
aS'fall_1'
p2037
ag5
ag5
ag5
asS'piyAnovAxaka_1'
p2038
(lp2039
S'piyAnovAxaka_1'
p2040
aS'pianist_1'
p2041
ag5
ag5
aS'pianist_1'
p2042
asS'roga_1'
p2043
(lp2044
S'roga_1'
p2045
aS'disease_1'
p2046
ag5
ag5
ag5
asS'pahalA_1'
p2047
(lp2048
S'pahalA_1'
p2049
aS'first_1'
p2050
ag5
ag5
ag5
asS'sipAhI_1'
p2051
(lp2052
S'sipAhI_1'
p2053
aS'sepoy_1'
p2054
ag5
ag5
ag5
asS'paxa_1'
p2055
(lp2056
S'paxa_1'
p2057
aS'post_1'
p2058
ag5
ag5
ag5
asS'xukAna_1'
p2059
(lp2060
S'xukAna_1'
p2061
aS'shop_1'
p2062
ag5
ag5
ag5
asS'xAzwa_1'
p2063
(lp2064
S'xAzwa_1'
p2065
aS'tooth_1'
p2066
ag5
ag5
ag5
asS'rAya_1'
p2067
(lp2068
S'rAya_1'
p2069
aS'advice_1'
p2070
ag5
ag5
ag5
asS'raPwAra_1'
p2071
(lp2072
S'raPwAra_1'
p2073
aS'speed_1'
p2074
ag5
ag5
ag5
asS'aBI-waka_1'
p2075
(lp2076
S'aBI-waka_1'
p2077
aS'yet_1'
p2078
ag5
ag5
aS'noch_1'
p2079
asS'yAxa+kara_1'
p2080
(lp2081
S'yAxa+kara_1'
p2082
aS'learn_2'
p2083
ag5
ag5
ag5
asS'amUlya_1'
p2084
(lp2085
S'amUlya_1'
p2086
aS'invaluable_1'
p2087
ag5
ag5
ag5
asS'cammaca_1'
p2088
(lp2089
S'cammaca_1'
p2090
aS'spoon_1'
p2091
ag5
ag5
aS'L\xc3\xb6fifel_1'
p2092
asS'sinemA_1'
p2093
(lp2094
S'sinemA_1'
p2095
aS'cinema_1'
p2096
ag5
ag5
ag5
asS'hAz_1'
p2097
(lp2098
S'hAz_1'
p2099
aS'yes_1'
p2100
ag5
ag5
ag5
asS'melA_1'
p2101
(lp2102
S'melA_1'
p2103
aS'fair_1'
p2104
ag5
ag5
ag5
asS'bAra-bAra_1'
p2105
(lp2106
S'bAra-bAra_1'
p2107
aS'again-and-again_1'
p2108
ag5
ag5
ag5
asS'waMKvAha_1'
p2109
(lp2110
S'waMKvAha_1'
p2111
aS'salary_2'
p2112
ag5
ag5
ag5
asS'cunAva_1'
p2113
(lp2114
S'cunAva_1'
p2115
aS'election_1'
p2116
ag5
ag5
ag5
asS'kampyUtara_1'
p2117
(lp2118
S'kampyUtara_1'
p2119
aS'computer_1'
p2120
ag5
ag5
ag5
asS'dAitiMga+kara_1'
p2121
(lp2122
S'dAitiMga+kara_1'
p2123
aS'diet_1'
p2124
ag5
ag5
aS'n\xc3\xa4hren_1'
p2125
asS'vixyArWI_1'
p2126
(lp2127
S'vixyArWI_1'
p2128
aS'student_2'
p2129
ag5
ag5
ag5
asS'mila+kara_1'
p2130
(lp2131
S'mila+kara_1'
p2132
aS'meet_1'
p2133
ag5
ag5
aS'treffen_1'
p2134
asS'viRaya_2'
p2135
(lp2136
S'viRaya_2'
p2137
aS'matter_2'
p2138
ag5
ag5
ag5
asS'viRaya_1'
p2139
(lp2140
S'viRaya_1'
p2141
aS'subject_1'
p2142
ag5
ag5
ag5
asS'tIma_1'
p2143
(lp2144
S'tIma_1'
p2145
aS'team_1'
p2146
ag5
ag5
ag5
asS'sarakArI+nOkarI_1'
p2147
(lp2148
S'sarakArI+nOkarI_1'
p2149
aS'government-job_1'
p2150
ag5
ag5
ag5
asS'viBAjana_1'
p2151
(lp2152
S'viBAjana_1'
p2153
aS'partition_1'
p2154
ag5
ag5
ag5
asS'TaNdA_1'
p2155
(lp2156
S'TaNdA_1'
p2157
aS'cold_1'
p2158
ag5
ag5
ag5
asS'kaMXA_1'
p2159
(lp2160
S'kaMXA_1'
p2161
aS'shoulder_1'
p2162
ag5
ag5
aS'schulder_1'
p2163
asS'nOkarI_1'
p2164
(lp2165
S'nOkarI_1'
p2166
aS'job_1'
p2167
ag5
ag5
ag5
asS'kiwAboM+kI+xukAna_1'
p2168
(lp2169
S'kiwAboM+kI+xukAna_1'
p2170
aS'bookstore_1'
p2171
ag5
ag5
aS'buchladen_1'
p2172
asS'korsa_1'
p2173
(lp2174
S'korsa_1'
p2175
aS'course_1'
p2176
ag5
ag5
ag5
asS'KajAnA_1'
p2177
(lp2178
S'KajAnA_1'
p2179
aS'treasure_1'
p2180
ag5
ag5
ag5
asS'kriketa+mEca_1'
p2181
(lp2182
S'kriketa+mEca_1'
p2183
aS'cricket-match_1'
p2184
ag5
ag5
ag5
asS'kvAlitI_1'
p2185
(lp2186
S'kvAlitI_1'
p2187
aS'quality_2'
p2188
ag5
ag5
ag5
asS'e_1'
p2189
(lp2190
S'e_1'
p2191
aS'a_1'
p2192
ag5
ag5
aS'ein_1'
p2193
asS'pawaMga_1'
p2194
(lp2195
S'pawaMga_1'
p2196
aS'kite_1'
p2197
ag5
ag5
ag5
asS'proparty+dIlara_1'
p2198
(lp2199
S'proparty+dIlara_1'
p2200
aS'property-dealer_1'
p2201
ag5
ag5
ag5
asS'janavarI_1'
p2202
(lp2203
S'janavarI_1'
p2204
aS'Jan_1'
p2205
ag5
ag5
ag5
asS'hawyA_1'
p2206
(lp2207
S'hawyA_1'
p2208
aS'murder_1'
p2209
ag5
ag5
aS'ermorden_1'
p2210
asS'kaha_2'
p2211
(lp2212
S'kaha_2'
p2213
aS'tell_4'
p2214
ag5
ag5
ag5
asS'saMbaMXI_1'
p2215
(lp2216
S'saMbaMXI_1'
p2217
aS'relatives_1'
p2218
ag5
ag5
ag5
asS'kaha_1'
p2219
(lp2220
S'kaha_1'
p2221
aS'say_1'
p2222
ag5
ag5
ag5
asS'nASwA_1'
p2223
(lp2224
S'nASwA_1'
p2225
aS'breakfast_1'
p2226
ag5
ag5
aS'Fr\xc3\xbchst\xc3\xbcck_1'
p2227
asS'xarI_1'
p2228
(lp2229
S'xarI_1'
p2230
aS'carpet_1'
p2231
ag5
ag5
aS'teppich_1'
p2232
asS'sevA+kara_1'
p2233
(lp2234
S'sevA+kara_1'
p2235
aS'serve_1'
p2236
ag5
ag5
ag5
asS'Caha_1'
p2237
(lp2238
S'Caha_1'
p2239
aS'six_2'
p2240
ag5
ag5
aS'sechs_1'
p2241
asS'jIwa_1'
p2242
(lp2243
S'jIwa_1'
p2244
aS'win_1'
p2245
ag5
ag5
aS'gewinnen_1'
p2246
asS'mITA_1'
p2247
(lp2248
S'mITA_1'
p2249
aS'sweet_1'
p2250
ag5
ag5
aS's\xc3\xbc\xc3\x9f_1'
p2251
asS'kiwanA_2'
p2252
(lp2253
S'kiwanA_2'
p2254
aS'how-many_2'
p2255
ag5
ag5
ag5
asS'deDZa_1'
p2256
(lp2257
S'deDZa_1'
p2258
aS'one-and-a-half_1'
p2259
ag5
ag5
ag5
asS'pasaMxa+A_1'
p2260
(lp2261
S'pasaMxa+A_1'
p2262
aS'love_1'
p2263
ag5
ag5
aS'liebe_1'
p2264
asS'jAsUsa_1'
p2265
(lp2266
S'jAsUsa_1'
p2267
aS'detective_1'
p2268
ag5
ag5
ag5
asS'sAdZI_1'
p2269
(lp2270
S'sAdZI_1'
p2271
aS'saree_1'
p2272
ag5
ag5
ag5
asS'siraxarxa_1'
p2273
(lp2274
S'siraxarxa_1'
p2275
aS'headache_1'
p2276
ag5
ag5
ag5
asS'ceka_1'
p2277
(lp2278
S'ceka_1'
p2279
aS'cheque_1'
p2280
ag5
ag5
ag5
asS'mqwyu_1'
p2281
(lp2282
S'mqwyu_1'
p2283
aS'death_1'
p2284
ag5
ag5
ag5
asS'pI_1'
p2285
(lp2286
S'pI_1'
p2287
aS'drink_1'
p2288
ag5
ag5
aS'trinken_1'
p2289
asS'upanyAsa_1'
p2290
(lp2291
S'upanyAsa_1'
p2292
aS'novel_1'
p2293
ag5
ag5
ag5
asS'paDZa_1'
p2294
(lp2295
S'paDZa_1'
p2296
aS'study_2'
p2297
ag5
ag5
ag5
asS'acCA+laga_1'
p2298
(lp2299
S'acCA+laga_1'
p2300
aS'like_1'
p2301
ag5
ag5
aS'm\xc3\xb6gen_1'
p2302
asS'tAPI_1'
p2303
(lp2304
S'tAPI_1'
p2305
aS'chocolate_2'
p2306
ag5
ag5
ag5
asS'bqhaspawivAra_1'
p2307
(lp2308
S'bqhaspawivAra_1'
p2309
aS'Thu_1'
p2310
ag5
ag5
ag5
asS'xo_1'
p2311
(lp2312
S'xo_1'
p2313
aS'2_1'
p2314
ag5
ag5
ag5
asS'kelA_1'
p2315
(lp2316
S'kelA_1'
p2317
aS'banana_1'
p2318
ag5
ag5
aS'Banane_1'
p2319
asS'kinArA_1'
p2320
(lp2321
S'kinArA_1'
p2322
aS'bank_1'
p2323
ag5
ag5
ag5
asS'rojZa_1'
p2324
(lp2325
S'rojZa_1'
p2326
aS'daily_2'
p2327
ag5
ag5
ag5
asS'hilA_1'
p2328
(lp2329
S'hilA_1'
p2330
aS'shake_1'
p2331
ag5
ag5
aS'sch\xc3\xbctteln_1'
p2332
asS'narka_1'
p2333
(lp2334
S'narka_1'
p2335
aS'hell_1'
p2336
ag5
ag5
ag5
asS'BAga_1'
p2337
(lp2338
S'BAga_1'
p2339
aS'run-away_1'
p2340
ag5
ag5
ag5
asS'PZilma_1'
p2341
(lp2342
S'PZilma_1'
p2343
aS'movie_1'
p2344
ag5
ag5
aS'film_1'
p2345
asS'mAnItara_1'
p2346
(lp2347
S'mAnItara_1'
p2348
aS'monitor_1'
p2349
ag5
ag5
ag5
asS'pExA_1'
p2350
(lp2351
S'pExA_1'
p2352
aS'born_1'
p2353
ag5
ag5
aS'geboren_1'
p2354
asS'xubArA_1'
p2355
(lp2356
S'xubArA_1'
p2357
aS'again_1'
p2358
ag5
ag5
ag5
asS'Sahara_1'
p2359
(lp2360
S'Sahara_1'
p2361
aS'city_1'
p2362
ag5
ag5
aS'stadt_2'
p2363
asS'varRa_1'
p2364
(lp2365
S'varRa_1'
p2366
aS'year_2'
p2367
ag5
ag5
ag5
asS'drAiMga_1'
p2368
(lp2369
S'drAiMga_1'
p2370
aS'drawing_1'
p2371
ag5
ag5
ag5
asS'banxa_1'
p2372
(lp2373
S'banxa_1'
p2374
aS'close_4'
p2375
ag5
ag5
ag5
asS'KarIxa_1'
p2376
(lp2377
S'KarIxa_1'
p2378
aS'buy_1'
p2379
ag5
ag5
aS'kaufen_1'
p2380
asS'anxara_2'
p2381
(lp2382
S'anxara_2'
p2383
aS'inside_1'
p2384
ag5
ag5
aS'in_1'
p2385
asS'BaviRya_1'
p2386
(lp2387
S'BaviRya_1'
p2388
aS'future_1'
p2389
ag5
ag5
ag5
asS'anxara_1'
p2390
(lp2391
S'anxara_1'
p2392
aS'in_1'
p2393
ag5
ag5
ag5
asS'iswemAla+ho_1'
p2394
(lp2395
S'iswemAla+ho_1'
p2396
aS'utilized_1'
p2397
ag5
ag5
ag5
asS'BarosA_1'
p2398
(lp2399
S'BarosA_1'
p2400
aS'trust_1'
p2401
ag5
ag5
aS'vertrauen_1'
p2402
asS'sIXA_1'
p2403
(lp2404
S'sIXA_1'
p2405
aS'straight_1'
p2406
ag5
ag5
ag5
asS'citTI_1'
p2407
(lp2408
S'citTI_1'
p2409
aS'letter_1'
p2410
ag5
ag5
ag5
asS'raha_2'
p2411
(lp2412
S'raha_2'
p2413
aS'stay_2'
p2414
ag5
ag5
ag5
asS'bajA_1'
p2415
(lp2416
S'bajA_1'
p2417
aS'play_3'
p2418
ag5
ag5
aS'spielen_1'
p2419
asS'sahAyaka_1'
p2420
(lp2421
S'sahAyaka_1'
p2422
aS'assistant_1'
p2423
ag5
ag5
ag5
asS'lOta_1'
p2424
(lp2425
S'lOta_1'
p2426
aS'return_2'
p2427
ag5
ag5
ag5
asS'mArga_1'
p2428
(lp2429
S'mArga_1'
p2430
aS'road_1'
p2431
ag5
ag5
ag5
asS'maSIna_1'
p2432
(lp2433
S'maSIna_1'
p2434
aS'machine_1'
p2435
ag5
ag5
ag5
asS'mUrKa_1'
p2436
(lp2437
S'mUrKa_1'
p2438
aS'idiot_1'
p2439
ag5
ag5
ag5
asS'XIre_1'
p2440
(lp2441
S'XIre_1'
p2442
aS'slow_1'
p2443
ag5
ag5
aS'langsam_1'
p2444
asS'sArA_2'
p2445
(lp2446
S'sArA_2'
p2447
aS'all_2'
p2448
ag5
ag5
aS'ganz_1'
p2449
asS'Sera_1'
p2450
(lp2451
S'Sera_1'
p2452
aS'lion_1'
p2453
ag5
ag5
aS'l\xc3\xb6we_1'
p2454
asS'Sera_2'
p2455
(lp2456
S'Sera_2'
p2457
aS'tiger_1'
p2458
ag5
ag5
ag5
asS'uTA_1'
p2459
(lp2460
S'uTA_1'
p2461
aS'lift_1'
p2462
ag5
ag5
ag5
asS'burA_1'
p2463
(lp2464
S'burA_1'
p2465
aS'bad_1'
p2466
ag5
ag5
ag5
asS'TaMdA_1'
p2467
(lp2468
S'TaMdA_1'
p2469
aS'cool_1'
p2470
ag5
ag5
ag5
asS'baMxa_1'
p2471
(lp2472
S'baMxa_1'
p2473
aS'close_3'
p2474
ag5
ag5
ag5
asS'TaMdA_2'
p2475
(lp2476
S'TaMdA_2'
p2477
aS'cold_2'
p2478
ag5
ag5
ag5
asS'harA_1'
p2479
(lp2480
S'harA_1'
p2481
aS'beat_1'
p2482
ag5
ag5
ag5
asS'baja_1'
p2483
(lp2484
S'baja_1'
p2485
aS'play_4'
p2486
ag5
ag5
ag5
asS'bahuwa_4'
p2487
(lp2488
S'bahuwa_4'
p2489
aS'too_1'
p2490
ag5
ag5
aS'zu_1'
p2491
asS'nikala_1'
p2492
(lp2493
S'nikala_1'
p2494
aS'rise_1'
p2495
ag5
ag5
ag5
asS'umra_1'
p2496
(lp2497
S'umra_1'
p2498
aS'age_2'
p2499
ag5
ag5
ag5
asS'asara_1'
p2500
(lp2501
S'asara_1'
p2502
aS'effect_1'
p2503
ag5
ag5
ag5
asS'wasvIra_1'
p2504
(lp2505
S'wasvIra_1'
p2506
aS'picture_1'
p2507
ag5
ag5
ag5
asS'prAWamika+skUla_1'
p2508
(lp2509
S'prAWamika+skUla_1'
p2510
aS'primary-school_1'
p2511
ag5
ag5
ag5
asS'bETa_1'
p2512
(lp2513
S'bETa_1'
p2514
aS'sit_1'
p2515
ag5
ag5
aS'sitzen_1'
p2516
asS'sUara_1'
p2517
(lp2518
S'sUara_1'
p2519
aS'boar_1'
p2520
ag5
ag5
ag5
asS'kAma+kara_2'
p2521
(lp2522
S'kAma+kara_2'
p2523
aS'do_2'
p2524
ag5
ag5
ag5
asS'bETa_2'
p2525
(lp2526
S'bETa_2'
p2527
aS'join_2'
p2528
ag5
ag5
ag5
asS'sAPa+kara_1'
p2529
(lp2530
S'sAPa+kara_1'
p2531
aS'clean_1'
p2532
ag5
ag5
aS's\xc3\xa4ubern'
p2533
asS'sarakAra_1'
p2534
(lp2535
S'sarakAra_1'
p2536
aS'government_2'
p2537
ag5
ag5
ag5
asS'kalama_1'
p2538
(lp2539
S'kalama_1'
p2540
aS'pen_2'
p2541
ag5
ag5
ag5
asS'nAma_1'
p2542
(lp2543
S'nAma_1'
p2544
aS'name_1'
p2545
ag5
ag5
aS'name_1'
p2546
asS'Gara_1'
p2547
(lp2548
S'Gara_1'
p2549
aS'house_1'
p2550
ag5
ag5
ag5
asS'Gara_2'
p2551
(lp2552
S'Gara_2'
p2553
aS'home_2'
p2554
ag5
ag5
ag5
asS'beca_1'
p2555
(lp2556
S'beca_1'
p2557
aS'sell_1'
p2558
ag5
ag5
aS'verkaufen_1'
p2559
asS'saMpAxaka_1'
p2560
(lp2561
S'saMpAxaka_1'
p2562
aS'editor_1'
p2563
ag5
ag5
ag5
asS'paDZa_2'
p2564
(lp2565
S'paDZa_2'
p2566
aS'read_2'
p2567
ag5
ag5
aS'lesen_1'
p2568
asS'skUla_1'
p2569
(lp2570
S'skUla_1'
p2571
aS'school_1'
p2572
ag5
ag5
aS'schule_1'
p2573
asS'bAwa_1'
p2574
(lp2575
S'bAwa_1'
p2576
aS'matter_1'
p2577
ag5
ag5
ag5
asS'meharabAna_1'
p2578
(lp2579
S'meharabAna_1'
p2580
aS'kind_1'
p2581
ag5
ag5
aS'nett_1'
p2582
asS'Avexana+kara_1'
p2583
(lp2584
S'Avexana+kara_1'
p2585
aS'apply_1'
p2586
ag5
ag5
ag5
asS'sUrya_1'
p2587
(lp2588
S'sUrya_1'
p2589
aS'sun_1'
p2590
ag5
ag5
ag5
asS'pikcara_1'
p2591
(lp2592
S'pikcara_1'
p2593
aS'movie_3'
p2594
ag5
ag5
ag5
asS'jZiMxA+raha_1'
p2595
(lp2596
S'jZiMxA+raha_1'
p2597
aS'survive_1'
p2598
ag5
ag5
ag5
asS'PZona_1'
p2599
(lp2600
S'PZona_1'
p2601
aS'phone_1'
p2602
ag5
ag5
ag5
asS'Bramiwa_1'
p2603
(lp2604
S'Bramiwa_1'
p2605
aS'confuse_1'
p2606
ag5
ag5
aS'verwirren_1'
p2607
asS'xUra_1'
p2608
(lp2609
S'xUra_1'
p2610
aS'far_1'
p2611
ag5
ag5
ag5
asS'guruvAra_1'
p2612
(lp2613
S'guruvAra_1'
p2614
aS'Thu_2'
p2615
ag5
ag5
ag5
asS'buXavAra_1'
p2616
(lp2617
S'buXavAra_1'
p2618
aS'Wed_1'
p2619
ag5
ag5
ag5
asS'snAna+kara_1'
p2620
(lp2621
S'snAna+kara_1'
p2622
aS'bath_1'
p2623
ag5
ag5
ag5
asS'GanA_1'
p2624
(lp2625
S'GanA_1'
p2626
aS'thickly_1'
p2627
ag5
ag5
ag5
asS'xeKa_2'
p2628
(lp2629
S'xeKa_2'
p2630
aS'watch_2'
p2631
ag5
ag5
aS'beobachten_1'
p2632
asS'XArApravAha_1'
p2633
(lp2634
S'XArApravAha_1'
p2635
aS'fluently_1'
p2636
ag5
ag5
ag5
asS'suMxara_1'
p2637
(lp2638
S'suMxara_1'
p2639
aS'beautiful_1'
p2640
ag5
ag5
aS'sch\xc3\xb6n_1'
p2641
asS'jahAja_1'
p2642
(lp2643
S'jahAja_1'
p2644
aS'ship_1'
p2645
ag5
ag5
aS'schiff_1'
p2646
asS'xeKa_3'
p2647
(lp2648
S'xeKa_3'
p2649
aS'look_3'
p2650
ag5
ag5
ag5
asS'samApwa_1'
p2651
(lp2652
S'samApwa_1'
p2653
aS'finish_1'
p2654
ag5
ag5
aS'fertig_1'
p2655
asS'wambolA_1'
p2656
(lp2657
S'wambolA_1'
p2658
aS'tombola_1'
p2659
ag5
ag5
ag5
asS'ASA+raKa_1'
p2660
(lp2661
S'ASA+raKa_1'
p2662
aS'expect_1'
p2663
ag5
ag5
ag5
asS'SAxI_1'
p2664
(lp2665
S'SAxI_1'
p2666
aS'marriage_1'
p2667
ag5
ag5
ag5
asS'rAwa-kA-KAnA_1'
p2668
(lp2669
S'rAwa-kA-KAnA_1'
p2670
aS'dinner_1'
p2671
ag5
ag5
aS'abendessen_1'
p2672
asS'KAnA_1'
p2673
(lp2674
S'KAnA_1'
p2675
aS'meal_1'
p2676
ag5
ag5
ag5
asS'KAnA_2'
p2677
(lp2678
S'KAnA_2'
p2679
aS'food_2'
p2680
ag5
ag5
ag5
asS'kAmakAjI+mahilA_1'
p2681
(lp2682
S'kAmakAjI+mahilA_1'
p2683
aS'work-lady_1'
p2684
ag5
ag5
ag5
asS'mEseja_1'
p2685
(lp2686
S'mEseja_1'
p2687
aS'massage_1'
p2688
ag5
ag5
ag5
asS'sAP+kara_1'
p2689
(lp2690
S'sAP+kara_1'
p2691
aS'clean_2'
p2692
ag5
ag5
aS's\xc3\xa4ubern_1'
p2693
asS'pahana_1'
p2694
(lp2695
S'pahana_1'
p2696
aS'wear_1'
p2697
ag5
ag5
ag5
asS'kuCa_3'
p2698
(lp2699
S'kuCa_3'
p2700
aS'some_5'
p2701
ag5
ag5
ag5
asS'kuCa_2'
p2702
(lp2703
S'kuCa_2'
p2704
aS'some_4'
p2705
ag5
ag5
ag5
asS'kuCa_1'
p2706
(lp2707
S'kuCa_1'
p2708
aS'some_3'
p2709
ag5
ag5
ag5
asS'sira_1'
p2710
(lp2711
S'sira_1'
p2712
aS'head_1'
p2713
ag5
ag5
aS'kopf_1'
p2714
asS'karIba_1'
p2715
(lp2716
S'karIba_1'
p2717
aS'about_1'
p2718
ag5
ag5
ag5
asS'apanA_1'
p2719
(lp2720
S'apanA_1'
p2721
aS'own_1'
p2722
ag5
ag5
aS'besitzen_1'
p2723
asS'hAla_1'
p2724
(lp2725
S'hAla_1'
p2726
aS'condition_1'
p2727
ag5
ag5
ag5
asS'puwra_1'
p2728
(lp2729
S'puwra_1'
p2730
aS'son_3'
p2731
ag5
ag5
ag5
asS'morawala_1'
p2732
(lp2733
S'morawala_1'
p2734
aS'mortal_1'
p2735
ag5
ag5
ag5
asS'brokara_1'
p2736
(lp2737
S'brokara_1'
p2738
aS'broker_1'
p2739
ag5
ag5
ag5
asS'prasannawA_1'
p2740
(lp2741
S'prasannawA_1'
p2742
aS'pleasure_1'
p2743
ag5
ag5
ag5
asS'bijalI_1'
p2744
(lp2745
S'bijalI_1'
p2746
aS'light_1'
p2747
ag5
ag5
ag5
asS'KA_1'
p2748
(lp2749
S'KA_1'
p2750
aS'eat_1'
p2751
ag5
ag5
aS'a\xc3\x9f_1'
p2752
asS'waba_1'
p2753
(lp2754
S'waba_1'
p2755
aS'then_2'
p2756
ag5
ag5
ag5
asS'waraha-waraha_1'
p2757
(lp2758
S'waraha-waraha_1'
p2759
aS'variety_1'
p2760
ag5
ag5
ag5
asS'hAWa_1'
p2761
(lp2762
S'hAWa_1'
p2763
aS'hand_1'
p2764
ag5
ag5
aS'reichen_1'
p2765
asS'KAwA_1'
p2766
(lp2767
S'KAwA_1'
p2768
aS'account_1'
p2769
ag5
ag5
ag5
asS'kAta_1'
p2770
(lp2771
S'kAta_1'
p2772
aS'cut_1'
p2773
ag5
ag5
ag5
asS'DUMDZa_1'
p2774
(lp2775
S'DUMDZa_1'
p2776
aS'look_1'
p2777
ag5
ag5
ag5
asS'DUMDZa_2'
p2778
(lp2779
S'DUMDZa_2'
p2780
aS'seek_2'
p2781
ag5
ag5
ag5
asS'DUMDZa_3'
p2782
(lp2783
S'DUMDZa_3'
p2784
aS'find_1'
p2785
ag5
ag5
ag5
asS'kyA_1'
p2786
(lp2787
S'kyA_1'
p2788
aS'what_1'
p2789
ag5
ag5
ag5
asS'kyA_2'
p2790
(lp2791
S'kyA_2'
p2792
aS'what_2'
p2793
ag5
ag5
ag5
asS'kota_1'
p2794
(lp2795
S'kota_1'
p2796
aS'coat_1'
p2797
ag5
ag5
ag5
asS'mOsama_1'
p2798
(lp2799
S'mOsama_1'
p2800
aS'weather_1'
p2801
ag5
ag5
ag5
asS'prema+kara_1'
p2802
(lp2803
S'prema+kara_1'
p2804
aS'love_2'
p2805
ag5
ag5
ag5
asS'SAmila+ho_1'
p2806
(lp2807
S'SAmila+ho_1'
p2808
aS'join_1'
p2809
ag5
ag5
ag5
asS'sajjana_1'
p2810
(lp2811
S'sajjana_1'
p2812
aS'gentleman_1'
p2813
ag5
ag5
aS'gentleman_1'
p2814
asS'wEyAra+kara_1'
p2815
(lp2816
S'wEyAra+kara_1'
p2817
aS'prepare_2'
p2818
ag5
ag5
ag5
asS'kirAyA_1'
p2819
(lp2820
S'kirAyA_1'
p2821
aS'rent_1'
p2822
ag5
ag5
ag5
asS'xiKA_1'
p2823
(lp2824
S'xiKA_1'
p2825
aS'show_1'
p2826
ag5
ag5
aS'zeigen_1'
p2827
asS'uTa_1'
p2828
(lp2829
S'uTa_1'
p2830
aS'wake_1'
p2831
ag5
ag5
ag5
asS'KabaraxArI+kara_1'
p2832
(lp2833
S'KabaraxArI+kara_1'
p2834
aS'take care_1'
p2835
ag5
ag5
ag5
asS'bajata_1'
p2836
(lp2837
S'bajata_1'
p2838
aS'budget_1'
p2839
ag5
ag5
ag5
asS'gulAba_1'
p2840
(lp2841
S'gulAba_1'
p2842
aS'rose_1'
p2843
ag5
ag5
aS'rose_1'
p2844
asS'hara_1'
p2845
(lp2846
S'hara_1'
p2847
aS'every_1'
p2848
ag5
ag5
aS'jed_1'
p2849
asS'Ora_1'
p2850
(lp2851
S'Ora_1'
p2852
aS'and_1'
p2853
ag5
ag5
aS'und_1'
p2854
asS'Ora_2'
p2855
(lp2856
S'Ora_2'
p2857
aS'other_2'
p2858
ag5
ag5
ag5
asS'haddI_1'
p2859
(lp2860
S'haddI_1'
p2861
aS'bone_1'
p2862
ag5
ag5
ag5
asS'AxamI_1'
p2863
(lp2864
S'AxamI_1'
p2865
aS'man_1'
p2866
ag5
ag5
aS'mann_1'
p2867
asS'xisambara_1'
p2868
(lp2869
S'xisambara_1'
p2870
aS'Dec_1'
p2871
ag5
ag5
ag5
asS'majabUwa_1'
p2872
(lp2873
S'majabUwa_1'
p2874
aS'strong_2'
p2875
ag5
ag5
ag5
asS'AvaSyakawA+ho_1'
p2876
(lp2877
S'AvaSyakawA+ho_1'
p2878
aS'need_1'
p2879
ag5
ag5
aS'brauchen_1'
p2880
asS'mila_4'
p2881
(lp2882
S'mila_4'
p2883
aS'receive_4'
p2884
ag5
ag5
ag5
asS'mila_5'
p2885
(lp2886
S'mila_5'
p2887
aS'find_2'
p2888
ag5
ag5
ag5
asS'mila_1'
p2889
(lp2890
S'mila_1'
p2891
aS'get_1'
p2892
ag5
ag5
ag5
asS'mila_2'
p2893
(lp2894
S'mila_2'
p2895
aS'see_2'
p2896
ag5
ag5
ag5
asS'Aja_1'
p2897
(lp2898
S'Aja_1'
p2899
aS'today_1'
p2900
ag5
ag5
aS'heute_1'
p2901
asS'mawa_1'
p2902
(lp2903
S'mawa_1'
p2904
aS'not_1'
p2905
ag5
ag5
ag5
asS'vakwa_1'
p2906
(lp2907
S'vakwa_1'
p2908
aS'time_2'
p2909
ag5
ag5
ag5
asS'bAwa+karanA_1'
p2910
(lp2911
S'bAwa+karanA_1'
p2912
aS'talking_1'
p2913
ag5
ag5
ag5
asS'xAKilA_1'
p2914
(lp2915
S'xAKilA_1'
p2916
aS'join_4'
p2917
ag5
ag5
ag5
asS'majZAka+kara_1'
p2918
(lp2919
S'majZAka+kara_1'
p2920
aS'joke_1'
p2921
ag5
ag5
ag5
asS'Ko_1'
p2922
(lp2923
S'Ko_1'
p2924
aS'lose_1'
p2925
ag5
ag5
aS'verlieren_1'
p2926
asS'guru_1'
p2927
(lp2928
S'guru_1'
p2929
aS'master_1'
p2930
ag5
ag5
ag5
asS'gamBIra_1'
p2931
(lp2932
S'gamBIra_1'
p2933
aS'serious_1'
p2934
ag5
ag5
ag5
asS'BUKa_1'
p2935
(lp2936
S'BUKa_1'
p2937
aS'hunger_1'
p2938
ag5
ag5
ag5
asS'JUTa_2'
p2939
(lp2940
S'JUTa_1'
p2941
aS'lie_1'
p2942
ag5
ag5
aS'liegen_1'
p2943
asS'naxI_1'
p2944
(lp2945
S'naxI_1'
p2946
aS'river_1'
p2947
ag5
ag5
ag5
asS'soca_2'
p2948
(lp2949
S'soca_1'
p2950
aS'thought_2'
p2951
ag5
ag5
ag5
asS'kOnasA_1'
p2952
(lp2953
S'kOnasA_1'
p2954
aS'which_1'
p2955
ag5
ag5
ag5
asS'saMcAliwa_1'
p2956
(lp2957
S'saMcAliwa_1'
p2958
aS'operate_1'
p2959
ag5
ag5
aS'betreiben_1'
p2960
asS'cAhiye_1'
p2961
(lp2962
S'cAhiye_1'
p2963
aS'want_2'
p2964
ag5
ag5
aS'm\xc3\xb6gen_1'
p2965
asS'rAsBerI_1'
p2966
(lp2967
S'rAsBerI_1'
p2968
aS'raspberry_1'
p2969
ag5
ag5
aS'himbeere_1'
p2970
asS'pUraba_1'
p2971
(lp2972
S'pUraba_1'
p2973
aS'east_1'
p2974
ag5
ag5
ag5
asS'savAla_1'
p2975
(lp2976
S'savAla_1'
p2977
aS'question_1'
p2978
ag5
ag5
ag5
asS'GUma_1'
p2979
(lp2980
S'GUma_1'
p2981
aS'visit_1'
p2982
ag5
ag5
ag5
asS'yAwrA+kara_1'
p2983
(lp2984
S'yAwrA+kara_1'
p2985
aS'travel_2'
p2986
ag5
ag5
ag5
asS'baxala_1'
p2987
(lp2988
S'baxala_1'
p2989
aS'change_2'
p2990
ag5
ag5
ag5
asS'wanaKvZAha_1'
p2991
(lp2992
S'wanaKvZAha_1'
p2993
aS'salary_3'
p2994
ag5
ag5
ag5
asS'kakRAXyApaka_1'
p2995
(lp2996
S'kakRAXyApaka_1'
p2997
aS'class-teacher_1'
p2998
ag5
ag5
ag5
asS'hasa_1'
p2999
(lp3000
S'hasa_1'
p3001
aS'laugh_1'
p3002
ag5
ag5
aS'lachen_1'
p3003
asS'xe_2'
p3004
(lp3005
S'xe_2'
p3006
aS'pay_2'
p3007
ag5
ag5
ag5
asS'xoharA_2'
p3008
(lp3009
S'xoharA_2'
p3010
aS'repeat_2'
p3011
ag5
ag5
ag5
asS'piwA_1'
p3012
(lp3013
S'piwA_1'
p3014
aS'father_1'
p3015
ag5
ag5
ag5
asS'pESEvara_1'
p3016
(lp3017
S'pESEvara_1'
p3018
aS'professional_1'
p3019
ag5
ag5
aS'professionell_1'
p3020
asS'samarWana_1'
p3021
(lp3022
S'samarWana_1'
p3023
aS'support_1'
p3024
ag5
ag5
ag5
asS'bAjAra_1'
p3025
(lp3026
S'bAjAra_1'
p3027
aS'market_1'
p3028
ag5
ag5
aS'Markt_1'
p3029
asS'guNa_1'
p3030
(lp3031
S'guNa_1'
p3032
aS'quality_1'
p3033
ag5
ag5
ag5
asS'WodZA_1'
p3034
(lp3035
S'WodZA_1'
p3036
aS'some_1'
p3037
ag5
ag5
aS'etwas_1'
p3038
asS'vyAyAma_1'
p3039
(lp3040
S'vyAyAma_1'
p3041
aS'exercise_1'
p3042
ag5
ag5
ag5
asS'pEra_1'
p3043
(lp3044
S'pEra_1'
p3045
aS'foot_1'
p3046
ag5
ag5
ag5
asS'prasixXa_1'
p3047
(lp3048
S'prasixXa_1'
p3049
aS'famous_1'
p3050
ag5
ag5
ag5
asS'vahAz_1'
p3051
(lp3052
S'vahAz_1'
p3053
aS'there_1'
p3054
ag5
ag5
ag5
asS'ruci_1'
p3055
(lp3056
S'ruci_1'
p3057
aS'interest_1'
p3058
ag5
ag5
ag5
asS'ruci_2'
p3059
(lp3060
S'ruci_2'
p3061
aS'interest_2'
p3062
ag5
ag5
ag5
asS'relagAdZI_1'
p3063
(lp3064
S'relagAdZI_1'
p3065
aS'train_2'
p3066
ag5
ag5
ag5
asS'SanivAra_1'
p3067
(lp3068
S'SanivAra_1'
p3069
aS'Sat_1'
p3070
ag5
ag5
ag5
asS'kaTina_1'
p3071
(lp3072
S'kaTina_1'
p3073
aS'hard_1'
p3074
ag5
ag5
ag5
asS'suganXa_1'
p3075
(lp3076
S'suganXa_1'
p3077
aS'scent_1'
p3078
ag5
ag5
ag5
asS'hENdabEga_1'
p3079
(lp3080
S'hENdabEga_1'
p3081
aS'purse_1'
p3082
ag5
ag5
ag5
asS'halavAI_1'
p3083
(lp3084
S'halavAI_1'
p3085
aS'confectioner_1'
p3086
ag5
ag5
ag5
asS'avaSya_1'
p3087
(lp3088
S'avaSya_1'
p3089
aS'must_1'
p3090
ag5
ag5
aS'm\xc3\xbcssen_1'
p3091
asS'weja_1'
p3092
(lp3093
S'weja_1'
p3094
aS'loud_1'
p3095
ag5
ag5
aS'laut_1'
p3096
asS'ro_1'
p3097
(lp3098
S'ro_1'
p3099
aS'weep_1'
p3100
ag5
ag5
ag5
asS'pasaMxa+kara_1'
p3101
(lp3102
S'pasaMxa+kara_1'
p3103
aS'like_2'
p3104
ag5
ag5
ag5
asS'pAra+kara_1'
p3105
(lp3106
S'pAra+kara_1'
p3107
aS'cross_1'
p3108
ag5
ag5
ag5
asS'mOkA_1'
p3109
(lp3110
S'mOkA_1'
p3111
aS'chance_1'
p3112
ag5
ag5
ag5
asS'kilomItara_1'
p3113
(lp3114
S'kilomItara_1'
p3115
aS'kilometer_1'
p3116
ag5
ag5
ag5
asS'gaXA_1'
p3117
(lp3118
S'gaXA_1'
p3119
aS'donkey_1'
p3120
ag5
ag5
ag5
asS'purAnA_1'
p3121
(lp3122
S'purAnA_1'
p3123
aS'old_6'
p3124
ag5
ag5
aS'alt_1'
p3125
asS'diplomA+korsa_1'
p3126
(lp3127
S'diplomA+korsa_1'
p3128
aS'diplomai-course_1'
p3129
ag5
ag5
ag5
asS'akele_1'
p3130
(lp3131
S'akele_1'
p3132
aS'alone_1'
p3133
ag5
ag5
ag5
asS'uxGoRaka_1'
p3134
(lp3135
S'uxGoRaka_1'
p3136
aS'announcer_1'
p3137
ag5
ag5
ag5
asS'xurBikRa_1'
p3138
(lp3139
S'xurBikRa_1'
p3140
aS'famine_1'
p3141
ag5
ag5
ag5
asS'paramAwmA_1'
p3142
(lp3143
S'paramAwmA_1'
p3144
aS'god_1'
p3145
ag5
ag5
ag5
asS'geMxa_1'
p3146
(lp3147
S'geMxa_1'
p3148
aS'ball_1'
p3149
ag5
ag5
ag5
asS'sArA_1'
p3150
(lp3151
S'sArA_1'
p3152
aS'whole_1'
p3153
ag5
ag5
ag5
asS'bawA_1'
p3154
(lp3155
S'bawA_1'
p3156
aS'suggest_1'
p3157
ag5
ag5
ag5
asS'bawA_2'
p3158
(lp3159
S'bawA_2'
p3160
aS'tell_2'
p3161
ag5
ag5
ag5
asS'kiwAba_1'
p3162
(lp3163
S'kiwAba_1'
p3164
aS'book_1'
p3165
ag5
ag5
aS'buch_1'
p3166
asS'biswara_1'
p3167
(lp3168
S'biswara_1'
p3169
aS'bed_1'
p3170
ag5
ag5
ag5
asS'kahAz_1'
p3171
(lp3172
S'kahAz_1'
p3173
aS'where_1'
p3174
ag5
ag5
ag5
asS'BI_1'
p3175
(lp3176
S'BI_1'
p3177
aS'too_1'
p3178
ag5
ag5
aS'auch_1'
p3179
asS'posta+kara_1'
p3180
(lp3181
S'posta+kara_1'
p3182
aS'post_2'
p3183
ag5
ag5
ag5
asS'parsanala+asissteMta_1'
p3184
(lp3185
S'parsanala+asissteMta_1'
p3186
aS'personal-assistant_1'
p3187
ag5
ag5
ag5
asS'cAlacalana_1'
p3188
(lp3189
S'cAlacalana_1'
p3190
aS'conduct_1'
p3191
ag5
ag5
ag5
asS'XErya_1'
p3192
(lp3193
S'XErya_1'
p3194
aS'patience_1'
p3195
ag5
ag5
ag5
asS'pZlora_1'
p3196
(lp3197
S'pZlora_1'
p3198
aS'floor_1'
p3199
ag5
ag5
ag5
asS'sAPa_1'
p3200
(lp3201
S'sAPa_1'
p3202
aS'clear_1'
p3203
ag5
ag5
aS'klar_1'
p3204
asS'nahIM_1'
p3205
(lp3206
S'nahIM_1'
p3207
aS'not_2'
p3208
ag5
ag5
ag5
asS'yogyawA_1'
p3209
(lp3210
S'yogyawA_1'
p3211
aS'qualification_1'
p3212
ag5
ag5
ag5
asS'pareSAnI_1'
p3213
(lp3214
S'pareSAnI_1'
p3215
aS'worry_1'
p3216
ag5
ag5
ag5
asS'yUnivarsitI_1'
p3217
(lp3218
S'yUnivarsitI_1'
p3219
aS'university_2'
p3220
ag5
ag5
ag5
asS'aBinewA_1'
p3221
(lp3222
S'aBinewA_1'
p3223
aS'actor_1'
p3224
ag5
ag5
aS'schauspieler_1'
p3225
asS'ravivAra_1'
p3226
(lp3227
S'ravivAra_1'
p3228
aS'Sun_1'
p3229
ag5
ag5
ag5
asS'bahana_1'
p3230
(lp3231
S'bahana_1'
p3232
aS'sister_1'
p3233
ag5
ag5
ag5
asS'xiKa_1'
p3234
(lp3235
S'xiKa_1'
p3236
aS'see_3'
p3237
ag5
ag5
ag5
asS'kyoM-ki_1'
p3238
(lp3239
S'kyoM-ki_1'
p3240
aS'because_1'
p3241
ag5
ag5
aS'weil_1'
p3242
asS'xahAdZa_1'
p3243
(lp3244
S'xahAdZa_1'
p3245
aS'roar_1'
p3246
ag5
ag5
aS'br\xc3\xbcllen_1'
p3247
asS'vyaswa_1'
p3248
(lp3249
S'vyaswa_1'
p3250
aS'busy_1'
p3251
ag5
ag5
ag5
asS'kismawa_1'
p3252
(lp3253
S'kismawa_1'
p3254
aS'luck_1'
p3255
ag5
ag5
ag5
asS'doYkatara_1'
p3256
(lp3257
S'doYkatara_1'
p3258
aS'doctor_1'
p3259
ag5
ag5
aS'arzt_1'
p3260
asS'Pala_1'
p3261
(lp3262
S'Pala_1'
p3263
aS'fruit_1'
p3264
ag5
ag5
aS'frucht_1'
p3265
asS'cAlAka_1'
p3266
(lp3267
S'cAlAka_1'
p3268
aS'clever_1'
p3269
ag5
ag5
ag5
asS'hAWI_1'
p3270
(lp3271
S'hAWI_1'
p3272
aS'elephant_1'
p3273
ag5
ag5
ag5
asS'maXura_1'
p3274
(lp3275
S'maXura_1'
p3276
aS'melodious_1'
p3277
ag5
ag5
ag5
asS'ilAkA_1'
p3278
(lp3279
S'ilAkA_1'
p3280
aS'area_1'
p3281
ag5
ag5
ag5
asS'kaCuA_1'
p3282
(lp3283
S'kaCuA_1'
p3284
aS'turtle_1'
p3285
ag5
ag5
aS'schildkr\xc3\xb6te_1'
p3286
asS'TIka_2'
p3287
(lp3288
S'TIka_2'
p3289
aS'allright_2'
p3290
ag5
ag5
ag5
asS'TIka_1'
p3291
(lp3292
S'TIka_1'
p3293
aS'right_1'
p3294
ag5
ag5
ag5
asS'aByAsa+kara_1'
p3295
(lp3296
S'aByAsa+kara_1'
p3297
aS'study_1'
p3298
ag5
ag5
ag5
asS'vivAha_1'
p3299
(lp3300
S'vivAha_1'
p3301
aS'marriage_2'
p3302
ag5
ag5
ag5
asS'bAwa+kara_1'
p3303
(lp3304
S'bAwa+kara_1'
p3305
aS'talk_1'
p3306
ag5
ag5
ag5
asS'kuwwA_1'
p3307
(lp3308
S'kuwwA_1'
p3309
aS'dog_1'
p3310
ag5
ag5
aS'hund_1'
p3311
asS'jAnavara_1'
p3312
(lp3313
S'jAnavara_1'
p3314
aS'animal_1'
p3315
ag5
ag5
ag5
asS'aXyApaka_1'
p3316
(lp3317
S'aXyApaka_1'
p3318
aS'teacher_1'
p3319
ag5
ag5
ag5
asS'xArSanika_1'
p3320
(lp3321
S'xArSanika_1'
p3322
aS'philosopher_1'
p3323
ag5
ag5
ag5
asS'bulA_1'
p3324
(lp3325
S'bulA_1'
p3326
aS'call_1'
p3327
ag5
ag5
aS'rufen_1'
p3328
asS'wiWi_1'
p3329
(lp3330
S'wiWi_1'
p3331
aS'date_1'
p3332
ag5
ag5
ag5
asS'umra_2'
p3333
(lp3334
S'umra_2'
p3335
aS'address_2'
p3336
ag5
ag5
ag5
asS'badZA_1'
p3337
(lp3338
S'badZA_1'
p3339
aS'great_1'
p3340
ag5
ag5
ag5
asS'navambara_1'
p3341
(lp3342
S'navambara_1'
p3343
aS'Nov_1'
p3344
ag5
ag5
ag5
asS'uwwara_1'
p3345
(lp3346
S'uwwara_1'
p3347
aS'answer_2'
p3348
ag5
ag5
ag5
asS'samaya_1'
p3349
(lp3350
S'samaya_1'
p3351
aS'time_1'
p3352
ag5
ag5
ag5
asS'laga_2'
p3353
(lp3354
S'laga_2'
p3355
aS'take_3'
p3356
ag5
ag5
ag5
asS'baWA_1'
p3357
(lp3358
S'baWA_1'
p3359
aS'tell_1'
p3360
ag5
ag5
aS'erz\xc3\xa4hlen_1'
p3361
asS'laga_1'
p3362
(lp3363
S'laga_1'
p3364
aS'feel_1'
p3365
ag5
ag5
ag5
asS'kaBI-kaBI_1'
p3366
(lp3367
S'kaBI-kaBI_1'
p3368
aS'sometimes_1'
p3369
ag5
ag5
ag5
asS'kahAnI_1'
p3370
(lp3371
S'kahAnI_1'
p3372
aS'story_1'
p3373
ag5
ag5
aS'geschichte_1'
p3374
asS'kirAyA_2'
p3375
(lp3376
S'kirAyA_2'
p3377
aS'rent_2'
p3378
ag5
ag5
ag5
asS'xUsarA_2'
p3379
(lp3380
S'xUsarA_2'
p3381
aS'second_2'
p3382
ag5
ag5
ag5
asS'xUsarA_1'
p3383
(lp3384
S'xUsarA_1'
p3385
aS'other_1'
p3386
ag5
ag5
ag5
asS'mAlika_1'
p3387
(lp3388
S'mAlika_1'
p3389
aS'owner_1'
p3390
ag5
ag5
ag5
asS'pAnI_1'
p3391
(lp3392
S'pAnI_1'
p3393
aS'water_2'
p3394
ag5
ag5
ag5
asS'parIkRA_1'
p3395
(lp3396
S'parIkRA_1'
p3397
aS'examination_1'
p3398
ag5
ag5
ag5
asS'ummIxa_1'
p3399
(lp3400
S'ummIxa_1'
p3401
aS'hope_1'
p3402
ag5
ag5
aS'hoffnung_1'
p3403
asS'Sabda_1'
p3404
(lp3405
S'Sabda_1'
p3406
aS'word_1'
p3407
ag5
ag5
ag5
asS'acCA_3'
p3408
(lp3409
S'acCA_3'
p3410
aS'nice_1'
p3411
ag5
ag5
aS'sch\xc3\xb6n_1'
p3412
asS'praXAnamanwrI_1'
p3413
(lp3414
S'praXAnamanwrI_1'
p3415
aS'prime-minister_1'
p3416
ag5
ag5
ag5
asS'vyApArI_1'
p3417
(lp3418
S'vyApArI_1'
p3419
aS'businessman_1'
p3420
ag5
ag5
ag5
asS'agaswa_1'
p3421
(lp3422
S'agaswa_1'
p3423
aS'Aug_1'
p3424
ag5
ag5
ag5
asS'peya_1'
p3425
(lp3426
S'peya_1'
p3427
aS'drink_2'
p3428
ag5
ag5
ag5
asS'AisakrIma_1'
p3429
(lp3430
S'AisakrIma_1'
p3431
aS'ice-cream_1'
p3432
ag5
ag5
ag5
asS'bAwacIwa+kara_2'
p3433
(lp3434
S'bAwacIwa+kara_2'
p3435
aS'talk_2'
p3436
ag5
ag5
ag5
asS'bAwacIwa+kara_1'
p3437
(lp3438
S'bAwacIwa+kara_1'
p3439
aS'communicate_1'
p3440
ag5
ag5
ag5
asS'sAmagrI_1'
p3441
(lp3442
S'sAmagrI_1'
p3443
aS'stuff_1'
p3444
ag5
ag5
aS'zeug_1'
p3445
asS'rupayA_1'
p3446
(lp3447
S'rupayA_1'
p3448
aS'rupee_1'
p3449
ag5
ag5
ag5
asS'badZA+kara_1'
p3450
(lp3451
S'badZA+kara_1'
p3452
aS'grant_1'
p3453
ag5
ag5
ag5
asS'uwwara_2'
p3454
(lp3455
S'uwwara_2'
p3456
aS'reply_2'
p3457
ag5
ag5
ag5
asS'amIra_1'
p3458
(lp3459
S'amIra_1'
p3460
aS'rich_2'
p3461
ag5
ag5
ag5
asS'laMgara_1'
p3462
(lp3463
S'laMgara_1'
p3464
aS'anchor_1'
p3465
ag5
ag5
aS'anker_1'
p3466
asS'cuna_1'
p3467
(lp3468
S'cuna_1'
p3469
aS'pick_1'
p3470
ag5
ag5
aS'pfl\xc3\xbccken_1'
p3471
asS'cuna_2'
p3472
(lp3473
S'cuna_2'
p3474
aS'select_2'
p3475
ag5
ag5
ag5
asS'yAwrA_1'
p3476
(lp3477
S'yAwrA_1'
p3478
aS'journey_1'
p3479
ag5
ag5
ag5
asS'sAhaba_1'
p3480
(lp3481
S'sAhaba_1'
p3482
aS'boss_1'
p3483
ag5
ag5
ag5
asS'ladZakA_1'
p3484
(lp3485
S'ladZakA_1'
p3486
aS'boy_2'
p3487
ag5
ag5
ag5
asS'ladZakA_2'
p3488
(lp3489
S'ladZakA_2'
p3490
aS'son_2'
p3491
ag5
ag5
ag5
asS'aKabAra_1'
p3492
(lp3493
S'aKabAra_1'
p3494
aS'newspaper_1'
p3495
ag5
ag5
aS'zeitung_1'
p3496
asS'suKaxa_1'
p3497
(lp3498
S'suKaxa_1'
p3499
aS'pleasant_1'
p3500
ag5
ag5
ag5
asS'kUxa_1'
p3501
(lp3502
S'kUxa_1'
p3503
aS'jump_1'
p3504
ag5
ag5
ag5
asS'julAI_1'
p3505
(lp3506
S'julAI_1'
p3507
aS'Jul_1'
p3508
ag5
ag5
ag5
asS'BArI-Barakama_1'
p3509
(lp3510
S'BArI-Barakama_1'
p3511
aS'heavy_1'
p3512
ag5
ag5
aS'schwer_1'
p3513
asS'bAjZAra_1'
p3514
(lp3515
S'bAjZAra_1'
p3516
aS'market_2'
p3517
ag5
ag5
ag5
asS'uXAra+xe_1'
p3518
(lp3519
S'uXAra+xe_1'
p3520
aS'lend_1'
p3521
ag5
ag5
ag5
asS'mawaxAna+kara_1'
p3522
(lp3523
S'mawaxAna+kara_1'
p3524
aS'vote_2'
p3525
ag5
ag5
ag5
asS'catAI_1'
p3526
(lp3527
S'catAI_1'
p3528
aS'mat_1'
p3529
ag5
ag5
ag5
asS'saMBAla_1'
p3530
(lp3531
S'saMBAla_1'
p3532
aS'do_3'
p3533
ag5
ag5
ag5
asS'xasavIM_1'
p3534
(lp3535
S'xasavIM_1'
p3536
aS'tenth_1'
p3537
ag5
ag5
ag5
asS'viSvavixyAlaya_1'
p3538
(lp3539
S'viSvavixyAlaya_1'
p3540
aS'university_1'
p3541
ag5
ag5
ag5
asS'pATa_1'
p3542
(lp3543
S'pATa_1'
p3544
aS'lesson_1'
p3545
ag5
ag5
ag5
asS'loga_1'
p3546
(lp3547
S'loga_1'
p3548
aS'people_1'
p3549
ag5
ag5
ag5
asS'somavAra_1'
p3550
(lp3551
S'somavAra_1'
p3552
aS'Mon_1'
p3553
ag5
ag5
ag5
asS'A_3'
p3554
(lp3555
S'A_3'
p3556
aS'know_3'
p3557
ag5
ag5
ag5
asS'A_2'
p3558
(lp3559
S'A_2'
p3560
aS'go_2'
p3561
ag5
ag5
ag5
asS'A_1'
p3562
(lp3563
S'A_1'
p3564
aS'come_1'
p3565
ag5
ag5
aS'kommen_1'
p3566
asS'meja_1'
p3567
(lp3568
S'meja_1'
p3569
aS'table_1'
p3570
ag5
ag5
aS'tisch_1'
p3571
asS'xeKa_1'
p3572
(lp3573
S'xeKa_1'
p3574
aS'see_1'
p3575
ag5
ag5
aS'sehen_1'
p3576
asS'liKa_1'
p3577
(lp3578
S'liKa_1'
p3579
aS'write_1'
p3580
ag5
ag5
aS'schreiben_1'
p3581
asS'KadZA+ho_1'
p3582
(lp3583
S'KadZA+ho_1'
p3584
aS'stand_1'
p3585
ag5
ag5
ag5
asS'camadZA_1'
p3586
(lp3587
S'camadZA_1'
p3588
aS'leather_1'
p3589
ag5
ag5
ag5
asS'kamA_1'
p3590
(lp3591
S'kamA_1'
p3592
aS'earn_1'
p3593
ag5
ag5
ag5
asS'salAha_1'
p3594
(lp3595
S'salAha_1'
p3596
aS'advice_2'
p3597
ag5
ag5
ag5
asS'xonoM_1'
p3598
(lp3599
S'xonoM_1'
p3600
aS'both_1'
p3601
ag5
ag5
ag5
asS'sammiliwa+ho_1'
p3602
(lp3603
S'sammiliwa+ho_1'
p3604
aS'attend_1'
p3605
ag5
ag5
ag5
asS'vyavahAra+kara_1'
p3606
(lp3607
S'vyavahAra+kara_1'
p3608
aS'behave_1'
p3609
ag5
ag5
ag5
asS'savArI_1'
p3610
(lp3611
S'savArI_1'
p3612
aS'conveyance_1'
p3613
ag5
ag5
ag5
asS'aMgrejI_1'
p3614
(lp3615
S'aMgrejI_1'
p3616
aS'english_1'
p3617
ag5
ag5
aS'englisch_1'
p3618
asS'manohara_1'
p3619
(lp3620
S'manohara_1'
p3621
aS'interesting_1'
p3622
ag5
ag5
ag5
asS'marammawa+kara_1'
p3623
(lp3624
S'marammawa+kara_1'
p3625
aS'repair_1'
p3626
ag5
ag5
aS'reparieren_1'
p3627
asS'barabAxa+kara_1'
p3628
(lp3629
S'barabAxa+kara_1'
p3630
aS'waste_1'
p3631
ag5
ag5
ag5
asS'seba_1'
p3632
(lp3633
S'seba_1'
p3634
aS'apple_1'
p3635
ag5
ag5
ag5
asS'maMgalavAra_1'
p3636
(lp3637
S'maMgalavAra_1'
p3638
aS'Tue_1'
p3639
ag5
ag5
ag5
asS'lOtA_1'
p3640
(lp3641
S'lOtA_1'
p3642
aS'return_1'
p3643
ag5
ag5
ag5
asS'SOka_1'
p3644
(lp3645
S'SOka_1'
p3646
aS'hobby_1'
p3647
ag5
ag5
ag5
asS'ArAma_1'
p3648
(lp3649
S'ArAma_1'
p3650
aS'break_1'
p3651
ag5
ag5
ag5
asS'yuxXa_1'
p3652
(lp3653
S'yuxXa_1'
p3654
aS'war_1'
p3655
ag5
ag5
ag5
asS'vIdiyo+gema_1'
p3656
(lp3657
S'vIdiyo+gema_1'
p3658
aS'video-game_1'
p3659
ag5
ag5
ag5
asS'yAxa_1'
p3660
(lp3661
S'yAxa_1'
p3662
aS'know_5'
p3663
ag5
ag5
ag5
asS'aMSaxAna_1'
p3664
(lp3665
S'aMSaxAna_1'
p3666
aS'contribution_1'
p3667
ag5
ag5
ag5
asS'lohA_1'
p3668
(lp3669
S'lohA_1'
p3670
aS'iron_1'
p3671
ag5
ag5
ag5
asS'Kola_1'
p3672
(lp3673
S'Kola_1'
p3674
aS'open_1'
p3675
ag5
ag5
aS'offen_1'
p3676
asS'se_1'
p3677
(lp3678
S'se_1'
p3679
aS'belong_1'
p3680
ag5
ag5
ag5
asS'SikArI_1'
p3681
(lp3682
S'SikArI_1'
p3683
aS'hunter_1'
p3684
ag5
ag5
aS'J\xc3\xa4ger_1'
p3685
asS'manapasaMxa_1'
p3686
(lp3687
S'manapasaMxa_1'
p3688
aS'favorite_1'
p3689
ag5
ag5
ag5
asS'Pira_1'
p3690
(lp3691
S'Pira_1'
p3692
aS'then_1'
p3693
ag5
ag5
ag5
asS'se_3'
p3694
(lp3695
S'se_1'
p3696
aS'from_1'
p3697
ag5
ag5
aS'von_1'
p3698
asS'se_2'
p3699
(lp3700
S'se_1'
p3701
aS'to_1'
p3702
ag5
ag5
aS'nach_1'
p3703
asS'SikRaNa_1'
p3704
(lp3705
S'SikRaNa_1'
p3706
aS'teaching_1'
p3707
ag5
ag5
ag5
asS'prawiBASAlI_1'
p3708
(lp3709
S'prawiBASAlI_1'
p3710
aS'gifted_1'
p3711
ag5
ag5
aS'begabt_1'
p3712
asS'cotI_1'
p3713
(lp3714
S'cotI_1'
p3715
aS'top_1'
p3716
ag5
ag5
ag5
asS'keka_1'
p3717
(lp3718
S'keka_1'
p3719
aS'cake_1'
p3720
ag5
ag5
aS'kuchen_1'
p3721
asS'mAz_1'
p3722
(lp3723
S'mAz_1'
p3724
aS'mother_2'
p3725
ag5
ag5
ag5
asS'gitAra_1'
p3726
(lp3727
S'gitAra_1'
p3728
aS'guitar_1'
p3729
ag5
ag5
ag5
asS'SAyaxa_1'
p3730
(lp3731
S'SAyaxa_1'
p3732
aS'probable_1'
p3733
ag5
ag5
aS'wahrscheinlich_1'
p3734
asS'bAwa+mAna_1'
p3735
(lp3736
S'bAwa+mAna_1'
p3737
aS'obey_1'
p3738
ag5
ag5
ag5
asS'lA_1'
p3739
(lp3740
S'lA_1'
p3741
aS'bring_1'
p3742
ag5
ag5
aS'bringen_1'
p3743
asS'badA_4'
p3744
(lp3745
S'badA_4'
p3746
aS'very_4'
p3747
ag5
ag5
ag5
asS'wEyAra+kara_2'
p3748
(lp3749
S'wEyAra+kara_2'
p3750
aS'prepare_3'
p3751
ag5
ag5
ag5
asS'uapyoga_1'
p3752
(lp3753
S'upayoga_1'
p3754
aS'use_1'
p3755
ag5
ag5
aS'benutzen_1'
p3756
asS'badA_1'
p3757
(lp3758
S'badA_1'
p3759
aS'elder_1'
p3760
ag5
ag5
ag5
asS'aprEla_1'
p3761
(lp3762
S'aprEla_1'
p3763
aS'Apr_1'
p3764
ag5
ag5
ag5
asS'badA_3'
p3765
(lp3766
S'badA_3'
p3767
aS'big_3'
p3768
ag5
ag5
aS'gro\xc3\x9f_1'
p3769
asS'badA_2'
p3770
(lp3771
S'badA_2'
p3772
aS'huge_2'
p3773
ag5
ag5
ag5
asS'AsamAna_1'
p3774
(lp3775
S'AsamAna_1'
p3776
aS'sky_1'
p3777
ag5
ag5
aS'himmel_1'
p3778
asS'GqNA+kara_1'
p3779
(lp3780
S'GqNA+kara_1'
p3781
aS'hate_1'
p3782
ag5
ag5
aS'hassen_1'
p3783
asS'tahalanA_1'
p3784
(lp3785
S'tahalanA_1'
p3786
aS'walking_1'
p3787
ag5
ag5
ag5
asS'sarakArI_1'
p3788
(lp3789
S'sarakArI_1'
p3790
aS'government_1'
p3791
ag5
ag5
ag5
asS'sAwa_1'
p3792
(lp3793
S'sAwa_1'
p3794
aS'seven_1'
p3795
ag5
ag5
ag5
asS'siletI_1'
p3796
(lp3797
S'siletI_1'
p3798
aS'grey_1'
p3799
ag5
ag5
ag5
asS'jUsa_1'
p3800
(lp3801
S'jUsa_1'
p3802
aS'juice_1'
p3803
ag5
ag5
ag5
asS'mAla_1'
p3804
(lp3805
S'mAla_1'
p3806
aS'property_1'
p3807
ag5
ag5
ag5
asS'prayogaSAlA_1'
p3808
(lp3809
S'prayogaSAlA_1'
p3810
aS'lab_1'
p3811
ag5
ag5
aS'labor_1'
p3812
asS'CUta_2'
p3813
(lp3814
S'CUta_2'
p3815
aS'discount_2'
p3816
ag5
ag5
ag5
asS'CUta_1'
p3817
(lp3818
S'CUta_1'
p3819
aS'miss_1'
p3820
ag5
ag5
ag5
asS'mAwA-piwA_1'
p3821
(lp3822
S'mAwA-piwA_1'
p3823
aS'parent_1'
p3824
ag5
ag5
ag5
asS'galawa_1'
p3825
(lp3826
S'galawa_1'
p3827
aS'wrong_2'
p3828
ag5
ag5
aS'liegen_2'
p3829
asS'namUnA_1'
p3830
(lp3831
S'namUnA_1'
p3832
aS'sample_1'
p3833
ag5
ag5
aS'probe_1'
p3834
asS'bajAnA_1'
p3835
(lp3836
S'bajAnA_1'
p3837
aS'playing_1'
p3838
ag5
ag5
ag5
asS'puwrI_1'
p3839
(lp3840
S'puwrI_1'
p3841
aS'daughter_1'
p3842
ag5
ag5
ag5
asS'darapoka_1'
p3843
(lp3844
S'darapoka_1'
p3845
aS'timid_1'
p3846
ag5
ag5
ag5
asS'dabala+rotI_1'
p3847
(lp3848
S'dabala+rotI_1'
p3849
aS'bread_1'
p3850
ag5
ag5
ag5
asS'vinxu_1'
p3851
(lp3852
S'vinxu_1'
p3853
aS'point_1'
p3854
ag5
ag5
ag5
asS'nibanXa_1'
p3855
(lp3856
S'nibanXa_1'
p3857
aS'essay_1'
p3858
ag5
ag5
ag5
asS'aksara_1'
p3859
(lp3860
S'aksara_1'
p3861
aS'often_1'
p3862
ag5
ag5
aS'oft_1'
p3863
asS'kara_1'
p3864
(lp3865
S'kara_1'
p3866
aS'do_1'
p3867
ag5
ag5
ag5
asS'kara_2'
p3868
(lp3869
S'kara_2'
p3870
aS'take_2'
p3871
ag5
ag5
ag5
asS'ATavIM_1'
p3872
(lp3873
S'ATavIM_1'
p3874
aS'eighth_1'
p3875
ag5
ag5
ag5
asS'siwambara_1'
p3876
(lp3877
S'siwambara_1'
p3878
aS'Sep_1'
p3879
ag5
ag5
ag5
asS'pawra_3'
p3880
(lp3881
S'pawra_3'
p3882
aS'letter_3'
p3883
ag5
ag5
ag5
asS'eka_2'
p3884
(lp3885
S'eka_2'
p3886
aS'1_2'
p3887
ag5
ag5
ag5
asS'subaha_1'
p3888
(lp3889
S'subaha_1'
p3890
aS'morning_1'
p3891
ag5
ag5
aS'morgen_1'
p3892
asS'baksA_1'
p3893
(lp3894
S'baksA_1'
p3895
aS'box_1'
p3896
ag5
ag5
aS'box_1'
p3897
asS'jagaha_1'
p3898
(lp3899
S'jagaha_1'
p3900
aS'place_1'
p3901
ag5
ag5
ag5
asS'galawI_1'
p3902
(lp3903
S'galawI_1'
p3904
aS'mistake_1'
p3905
ag5
ag5
ag5
asS'BiKArI_1'
p3906
(lp3907
S'BiKArI_1'
p3908
aS'beggar_1'
p3909
ag5
ag5
ag5
asS'saMwulana_1'
p3910
(lp3911
S'saMwulana_1'
p3912
aS'balance_1'
p3913
ag5
ag5
ag5
asS'pyAra+kara_1'
p3914
(lp3915
S'pyAra+kara_1'
p3916
aS'love_3'
p3917
ag5
ag5
ag5
asS'pakA_2'
p3918
(lp3919
S'pakA_1'
p3920
aS'ripe_1'
p3921
ag5
ag5
aS'reif_1'
p3922
asS'pakA_1'
p3923
(lp3924
S'pakA_1'
p3925
aS'cook_1'
p3926
ag5
ag5
aS'kochen_1'
p3927
asS'maxaxa+kara_1'
p3928
(lp3929
S'maxaxa+kara_1'
p3930
aS'help_1'
p3931
ag5
ag5
aS'helfen_1'
p3932
asS'sO_1'
p3933
(lp3934
S'sO_1'
p3935
aS'100_1'
p3936
ag5
ag5
ag5
asS'ucakA_1'
p3937
(lp3938
S'ucakA_1'
p3939
aS'shrug_1'
p3940
ag5
ag5
aS'zucken_1'
p3941
asS'gilAsa_1'
p3942
(lp3943
S'gilAsa_1'
p3944
aS'glass_1'
p3945
ag5
ag5
ag5
asS'javAba_1'
p3946
(lp3947
S'javAba_1'
p3948
aS'answer_1'
p3949
ag5
ag5
aS'antwort_1'
p3950
asS'mEca_1'
p3951
(lp3952
S'mEca_1'
p3953
aS'match_1'
p3954
ag5
ag5
ag5
asS'mAsa_1'
p3955
(lp3956
S'mAsa_1'
p3957
aS'month_1'
p3958
ag5
ag5
ag5
asS'baxalAva_1'
p3959
(lp3960
S'baxalAva_1'
p3961
aS'change_1'
p3962
ag5
ag5
ag5
asS'suna_1'
p3963
(lp3964
S'suna_1'
p3965
aS'attend_3'
p3966
ag5
ag5
ag5
asS'KAsa_1'
p3967
(lp3968
S'KAsa_1'
p3969
aS'original_1'
p3970
ag5
ag5
ag5
asS'suna_3'
p3971
(lp3972
S'suna_3'
p3973
aS'listen_3'
p3974
ag5
ag5
ag5
asS'priMsipala_1'
p3975
(lp3976
S'priMsipala_1'
p3977
aS'principal_2'
p3978
ag5
ag5
ag5
asS'PZlEta_1'
p3979
(lp3980
S'PZlEta_1'
p3981
aS'flat_1'
p3982
ag5
ag5
aS'wohnung_1'
p3983
asS'kAPI_3'
p3984
(lp3985
S'kAPI_3'
p3986
aS'very_3'
p3987
ag5
ag5
ag5
asS'ho_2'
p3988
(lp3989
S'ho_2'
p3990
aS'be_1'
p3991
ag5
ag5
aS'sein_1'
p3992
asS'ho_1'
p3993
(lp3994
S'ho_1'
p3995
aS'have_2'
p3996
ag5
ag5
ag5
asS'CAwravqwwi_1'
p3997
(lp3998
S'CAwravqwwi_1'
p3999
aS'scholarship_1'
p4000
ag5
ag5
aS'stipendium_1'
p4001
asS'blada+preSara_1'
p4002
(lp4003
S'blada+preSara_1'
p4004
aS'blood-pressure_1'
p4005
ag5
ag5
ag5
asS'baDa_1'
p4006
(lp4007
S'baDa_1'
p4008
aS'grow_1'
p4009
ag5
ag5
aS'werden_1'
p4010
asS'kAPI_1'
p4011
(lp4012
S'kAPI_1'
p4013
aS'a+lot+of_1'
p4014
ag5
ag5
aS'viel_1'
p4015
asS'basa_1'
p4016
(lp4017
S'basa_1'
p4018
aS'bus_1'
p4019
ag5
ag5
aS'bus_1'
p4020
asS'SarArawI_1'
p4021
(lp4022
S'SarArawI_1'
p4023
aS'naughty_1'
p4024
ag5
ag5
ag5
asS'kAuntara_1'
p4025
(lp4026
S'kAuntara_1'
p4027
aS'counter_1'
p4028
ag5
ag5
ag5
asS'kamare_1'
p4029
(lp4030
S'kamare_1'
p4031
aS'room_2'
p4032
ag5
ag5
aS'zimmer_1'
p4033
asS'sEnika_1'
p4034
(lp4035
S'sEnika_1'
p4036
aS'soldier_1'
p4037
ag5
ag5
aS'soldat_1'
p4038
asS'mAna_1'
p4039
(lp4040
S'mAna_1'
p4041
aS'believe_1'
p4042
ag5
ag5
ag5
asS'aMXA_1'
p4043
(lp4044
S'aMXA_1'
p4045
aS'blind_1'
p4046
ag5
ag5
aS'blind_1'
p4047
asS'sAPa+suWarA_1'
p4048
(lp4049
S'sAPa+suWarA_1'
p4050
aS'clean_2'
p4051
ag5
ag5
ag5
asS'upahAra_1'
p4052
(lp4053
S'upahAra_1'
p4054
aS'gift_1'
p4055
ag5
ag5
ag5
asS'gaNiwa_1'
p4056
(lp4057
S'gaNiwa_1'
p4058
aS'math_1'
p4059
ag5
ag5
ag5
asS'nasla_1'
p4060
(lp4061
S'nasla_1'
p4062
aS'breed_1'
p4063
ag5
ag5
aS'z\xc3\xbcchten_1'
p4064
asS'sunA_1'
p4065
(lp4066
S'sunA_1'
p4067
aS'tell_5'
p4068
ag5
ag5
ag5
asS'viwaraNa_1'
p4069
(lp4070
S'viwaraNa_1'
p4071
aS'deliver_1'
p4072
ag5
ag5
aS'liefern_1'
p4073
asS'gAya_1'
p4074
(lp4075
S'gAya_1'
p4076
aS'cow_1'
p4077
ag5
ag5
ag5
asS'xAxI_1'
p4078
(lp4079
S'xAxI_1'
p4080
aS'grandmother_1'
p4081
ag5
ag5
aS'gro\xc3\x9fmutter_1'
p4082
asS'mila_3'
p4083
(lp4084
S'mila_3'
p4085
aS'meet_3'
p4086
ag5
ag5
ag5
asS'kevala_1'
p4087
(lp4088
S'kevala_1'
p4089
aS'only_1'
p4090
ag5
ag5
ag5
asS'KicadZI_1'
p4091
(lp4092
S'KicadZI_1'
p4093
aS'cereal_1'
p4094
ag5
ag5
ag5
asS'praBAvaSAlI_1'
p4095
(lp4096
S'praBAvaSAlI_1'
p4097
aS'impressive_1'
p4098
ag5
ag5
ag5
asS'pAsa+ho_1'
p4099
(lp4100
S'pAsa+ho_1'
p4101
aS'pass_1'
p4102
ag5
ag5
ag5
asS'brekaPAsta+sIriyala_1'
p4103
(lp4104
S'brekaPAsta+sIriyala_1'
p4105
aS'breakfast-cereal_1'
p4106
ag5
ag5
ag5
asS'bahasa+kara_1'
p4107
(lp4108
S'bahasa+kara_1'
p4109
aS'argue_1'
p4110
ag5
ag5
ag5
asS'saMskqwa+aXyApikA_1'
p4111
(lp4112
S'saMskqwa+aXyApikA_1'
p4113
aS'sanskrit-teacher_1'
p4114
ag5
ag5
ag5
asS'mawa+dAla_1'
p4115
(lp4116
S'mawa+dAla_1'
p4117
aS'vote_1'
p4118
ag5
ag5
ag5
asS'gIwa_1'
p4119
(lp4120
S'gIwa_1'
p4121
aS'song_2'
p4122
ag5
ag5
ag5
asS'AjamA_1'
p4123
(lp4124
S'AjamA_1'
p4125
aS'test_1'
p4126
ag5
ag5
ag5
asS'CotA_1'
p4127
(lp4128
S'CotA_1'
p4129
aS'small_1'
p4130
ag5
ag5
aS'klein'
p4131
asS'CotA_2'
p4132
(lp4133
S'CotA_2'
p4134
aS'young_2'
p4135
ag5
ag5
aS'jung_2'
p4136
asS'maCalI_1'
p4137
(lp4138
S'maCalI_1'
p4139
aS'fish_1'
p4140
ag5
ag5
aS'fisch_1'
p4141
asS'TIka+kara_1'
p4142
(lp4143
S'TIka+kara_1'
p4144
aS'correct_1'
p4145
ag5
ag5
ag5
asS'cala_4'
p4146
(lp4147
S'cala_4'
p4148
aS'walk_4'
p4149
ag5
ag5
aS'spazieren_1'
p4150
asS'cala_5'
p4151
(lp4152
S'cala_5'
p4153
aS'go_5'
p4154
ag5
ag5
aS'gehen_1'
p4155
asS'cala_2'
p4156
(lp4157
S'cala_2'
p4158
aS'let_2'
p4159
ag5
ag5
ag5
asS'cala_3'
p4160
(lp4161
S'cala_3'
p4162
aS'move_3'
p4163
ag5
ag5
ag5
asS'cala_1'
p4164
(lp4165
S'cala_1'
p4166
aS'move_1'
p4167
ag5
ag5
ag5
asS'BArawIya_1'
p4168
(lp4169
S'BArawIya_1'
p4170
aS'indian_1'
p4171
ag5
ag5
ag5
asS'saBA_1'
p4172
(lp4173
S'saBA_1'
p4174
aS'meeting_1'
p4175
ag5
ag5
ag5
asS'anuBava_1'
p4176
(lp4177
S'anuBava_1'
p4178
aS'experience_1'
p4179
ag5
ag5
ag5
asS'jAMgalI_1'
p4180
(lp4181
S'jAMgalI_1'
p4182
aS'wild_1'
p4183
ag5
ag5
ag5
asS'ImAnaxAra_1'
p4184
(lp4185
S'ImAnaxAra_1'
p4186
aS'honest_1'
p4187
ag5
ag5
ag5
asS'jaba_1'
p4188
(lp4189
S'jaba_1'
p4190
aS'when_1'
p4191
ag5
ag5
ag5
asS'PutaboYla+mEtca_1'
p4192
(lp4193
S'PutaboYla+mEtca_1'
p4194
aS'football-match_1'
p4195
ag5
ag5
ag5
asS'kaI_1'
p4196
(lp4197
S'kaI_1'
p4198
aS'many_2'
p4199
ag5
ag5
ag5
asS'GUmanA_1'
p4200
(lp4201
S'GUmanA_1'
p4202
aS'visiting_1'
p4203
ag5
ag5
ag5
asS'SAMwa_1'
p4204
(lp4205
S'SAMwa_1'
p4206
aS'calm_1'
p4207
ag5
ag5
aS'beruhigen_1'
p4208
asS'sAWa+le_1'
p4209
(lp4210
S'sAWa+le_1'
p4211
aS'take_4'
p4212
ag5
ag5
ag5
asS'BIdZa_1'
p4213
(lp4214
S'BIdZa_1'
p4215
aS'crowd_1'
p4216
ag5
ag5
aS'menge_1'
p4217
asS'kImawa_1'
p4218
(lp4219
S'kImawa_1'
p4220
aS'rate_1'
p4221
ag5
ag5
ag5
asS'apAiMtameMta_1'
p4222
(lp4223
S'apAiMtameMta_1'
p4224
aS'appointment_1'
p4225
ag5
ag5
ag5
asS'PeMka_1'
p4226
(lp4227
S'PeMka_1'
p4228
aS'throw_1'
p4229
ag5
ag5
aS'werfen_1'
p4230
asS'sahelI_1'
p4231
(lp4232
S'sahelI_1'
p4233
aS'friend_2'
p4234
ag5
ag5
ag5
asS'jUna_1'
p4235
(lp4236
S'jUna_1'
p4237
aS'Jun_1'
p4238
ag5
ag5
ag5
asS'xAvawa_1'
p4239
(lp4240
S'xAvawa_1'
p4241
aS'party_1'
p4242
ag5
ag5
ag5
asS'kAPI_2'
p4243
(lp4244
S'kAPI_2'
p4245
aS'lot_2'
p4246
ag5
ag5
aS'menge_1'
p4247
asS'bAyeM_1'
p4248
(lp4249
S'bAyeM_1'
p4250
aS'left_1'
p4251
ag5
ag5
ag5
asS'pablika_1'
p4252
(lp4253
S'pablika_1'
p4254
aS'public_1'
p4255
ag5
ag5
ag5
asS'upalabXa_1'
p4256
(lp4257
S'upalabXa_1'
p4258
aS'offer_1'
p4259
ag5
ag5
ag5
asS'BunA+ho_1'
p4260
(lp4261
S'BunA+ho_1'
p4262
aS'grill_1'
p4263
ag5
ag5
aS'grillen_1'
p4264
asS'aXyApana_1'
p4265
(lp4266
S'aXyApana_1'
p4267
aS'teaching_2'
p4268
ag5
ag5
ag5
asS'batuA_1'
p4269
(lp4270
S'batuA_1'
p4271
aS'wallet_1'
p4272
ag5
ag5
aS'portemonnaie_1'
p4273
asS'BalAI_1'
p4274
(lp4275
S'BalAI_1'
p4276
aS'welfare_1'
p4277
ag5
ag5
ag5
asS'ilekrAniksa+injIniyara_1'
p4278
(lp4279
S'ilekrAniksa+injIniyara_1'
p4280
aS'electronics-engineer_1'
p4281
ag5
ag5
ag5
asS'cAcA_1'
p4282
(lp4283
S'cAcA_1'
p4284
aS'uncle_1'
p4285
ag5
ag5
aS'onkel_1'
p4286
asS'uwwara+xe_1'
p4287
(lp4288
S'uwwara+xe_1'
p4289
aS'reply_1'
p4290
ag5
ag5
ag5
asS'prawixina_1'
p4291
(lp4292
S'prawixina_1'
p4293
aS'daily_3'
p4294
ag5
ag5
ag5
asS'iMjIniyariMga+kAleja_1'
p4295
(lp4296
S'iMjIniyariMga+kAleja_1'
p4297
aS'engineering-college_1'
p4298
ag5
ag5
ag5
as.