(lp0
(i__main__
Morph_info
p1
(dp2
S'root'
p3
S'ladakA'
p4
sS'word'
p5
S'ladakI'
p6
sS'morph_dic'
p7
(dp8
S'case'
p9
S'd'
p10
sS'num'
p11
S's'
p12
sS'gen'
p13
S'f'
p14
sS'cat'
p15
S'adj'
p16
ssba(i__main__
Morph_info
p17
(dp18
g3
S'ladakA'
p19
sg5
g6
sg7
(dp20
g9
g10
sg11
S'p'
p21
sg13
g14
sg15
S'adj'
p22
ssba(i__main__
Morph_info
p23
(dp24
g3
S'ladakA'
p25
sg5
g6
sg7
(dp26
g9
S'o'
p27
sg11
g12
sg13
g14
sg15
S'adj'
p28
ssba(i__main__
Morph_info
p29
(dp30
g3
S'ladakA'
p31
sg5
g6
sg7
(dp32
g9
g27
sg11
g21
sg13
g14
sg15
S'adj'
p33
ssba(i__main__
Morph_info
p34
(dp35
g3
S'ladakA'
p36
sg5
g6
sg7
(dp37
g9
g10
sg11
g12
sg13
g14
sg15
S'n'
p38
ssba(i__main__
Morph_info
p39
(dp40
g3
S'ladakA'
p41
sg5
g6
sg7
(dp42
g9
g10
sg11
g21
sg13
g14
sg15
g38
ssba(i__main__
Morph_info
p43
(dp44
g3
S'ladakA'
p45
sg5
g6
sg7
(dp46
g9
g27
sg11
g12
sg13
g14
sg15
g38
ssba(i__main__
Morph_info
p47
(dp48
g3
S'ladakI'
p49
sg5
g6
sg7
(dp50
g9
g10
sg11
g12
sg13
g14
sg15
g38
ssba(i__main__
Morph_info
p51
(dp52
g3
S'ladakI'
p53
sg5
g6
sg7
(dp54
g9
g27
sg11
g12
sg13
g14
sg15
g38
ssba.(lp0
(i__main__
Morph_info
p1
(dp2
S'root'
p3
S'ne'
p4
sS'word'
p5
S'ne'
p6
sS'morph_dic'
p7
(dp8
S'cat'
p9
S'prsg'
p10
ssba.(lp0
(i__main__
Morph_info
p1
(dp2
S'root'
p3
S'wIna'
p4
sS'word'
p5
S'wIna'
p6
sS'morph_dic'
p7
(dp8
S'case'
p9
S'd'
p10
sS'num'
p11
S's'
p12
sS'gen'
p13
S'm'
p14
sS'cat'
p15
S'n'
p16
ssba(i__main__
Morph_info
p17
(dp18
g3
S'wIna'
p19
sg5
g6
sg7
(dp20
g9
g10
sg11
S'p'
p21
sg13
g14
sg15
g16
ssba(i__main__
Morph_info
p22
(dp23
g3
S'wIna'
p24
sg5
g6
sg7
(dp25
g9
S'o'
p26
sg11
g12
sg13
g14
sg15
g16
ssba.(lp0
(i__main__
Morph_info
p1
(dp2
S'root'
p3
S'purAnA'
p4
sS'word'
p5
S'purAnI'
p6
sS'morph_dic'
p7
(dp8
S'case'
p9
S'd'
p10
sS'num'
p11
S's'
p12
sS'gen'
p13
S'f'
p14
sS'cat'
p15
S'adj'
p16
ssba(i__main__
Morph_info
p17
(dp18
g3
S'purAnA'
p19
sg5
g6
sg7
(dp20
g9
g10
sg11
S'p'
p21
sg13
g14
sg15
S'adj'
p22
ssba(i__main__
Morph_info
p23
(dp24
g3
S'purAnA'
p25
sg5
g6
sg7
(dp26
g9
S'o'
p27
sg11
g12
sg13
g14
sg15
S'adj'
p28
ssba(i__main__
Morph_info
p29
(dp30
g3
S'purAnA'
p31
sg5
g6
sg7
(dp32
g9
g27
sg11
g21
sg13
g14
sg15
S'adj'
p33
ssba(i__main__
Morph_info
p34
(dp35
g3
S'purAnA'
p36
sg5
g6
sg7
(dp37
g9
g10
sg11
g12
sg13
g14
sg15
S'n'
p38
ssba(i__main__
Morph_info
p39
(dp40
g3
S'purAnA'
p41
sg5
g6
sg7
(dp42
g9
g10
sg11
g21
sg13
g14
sg15
g38
ssba(i__main__
Morph_info
p43
(dp44
g3
S'purAnA'
p45
sg5
g6
sg7
(dp46
g9
g27
sg11
g12
sg13
g14
sg15
g38
ssba(i__main__
Morph_info
p47
(dp48
g3
S'purAnI'
p49
sg5
g6
sg7
(dp50
g9
g10
sg11
g12
sg13
g14
sg15
g38
ssba(i__main__
Morph_info
p51
(dp52
g3
S'purAnI'
p53
sg5
g6
sg7
(dp54
g9
g27
sg11
g12
sg13
g14
sg15
g38
ssba.(lp0
(i__main__
Morph_info
p1
(dp2
S'root'
p3
S'kiwAba'
p4
sS'word'
p5
S'kiwAbeM'
p6
sS'morph_dic'
p7
(dp8
S'case'
p9
S'd'
p10
sS'num'
p11
S'p'
p12
sS'gen'
p13
S'f'
p14
sS'cat'
p15
S'n'
p16
ssba.(lp0
(i__main__
Morph_info
p1
(dp2
S'root'
p3
S'beca'
p4
sS'word'
p5
S'becIM'
p6
sS'morph_dic'
p7
(dp8
S'tam'
p9
S'yA'
p10
sS'num'
p11
S'p'
p12
sS'gen'
p13
S'f'
p14
sS'per'
p15
S'u'
p16
sS'cat'
p17
S'v'
p18
ssba(i__main__
Morph_info
p19
(dp20
g3
S'beca'
p21
sg5
g6
sg7
(dp22
g9
S'yA'
p23
sg11
g12
sg13
g14
sg15
S'm'
p24
sg17
g18
ssba(i__main__
Morph_info
p25
(dp26
g3
S'beca'
p27
sg5
g6
sg7
(dp28
g9
S'yA'
p29
sg11
g12
sg13
g14
sg15
S'm_h'
p30
sg17
g18
ssba(i__main__
Morph_info
p31
(dp32
g3
S'beca'
p33
sg5
g6
sg7
(dp34
g9
S'yA'
p35
sg11
g12
sg13
g14
sg15
S'a'
p36
sg17
g18
ssba.(lp0
(i__main__
Morph_info
p1
(dp2
S'root'
p3
S'ladakA'
p4
sS'word'
p5
S'ladakI'
p6
sS'morph_dic'
p7
(dp8
S'case'
p9
S'd'
p10
sS'num'
p11
S's'
p12
sS'gen'
p13
S'f'
p14
sS'cat'
p15
S'adj'
p16
ssba(i__main__
Morph_info
p17
(dp18
g3
S'ladakA'
p19
sg5
g6
sg7
(dp20
g9
g10
sg11
S'p'
p21
sg13
g14
sg15
S'adj'
p22
ssba(i__main__
Morph_info
p23
(dp24
g3
S'ladakA'
p25
sg5
g6
sg7
(dp26
g9
S'o'
p27
sg11
g12
sg13
g14
sg15
S'adj'
p28
ssba(i__main__
Morph_info
p29
(dp30
g3
S'ladakA'
p31
sg5
g6
sg7
(dp32
g9
g27
sg11
g21
sg13
g14
sg15
S'adj'
p33
ssba(i__main__
Morph_info
p34
(dp35
g3
S'ladakA'
p36
sg5
g6
sg7
(dp37
g9
g10
sg11
g12
sg13
g14
sg15
S'n'
p38
ssba(i__main__
Morph_info
p39
(dp40
g3
S'ladakA'
p41
sg5
g6
sg7
(dp42
g9
g10
sg11
g21
sg13
g14
sg15
g38
ssba(i__main__
Morph_info
p43
(dp44
g3
S'ladakA'
p45
sg5
g6
sg7
(dp46
g9
g27
sg11
g12
sg13
g14
sg15
g38
ssba(i__main__
Morph_info
p47
(dp48
g3
S'ladakI'
p49
sg5
g6
sg7
(dp50
g9
g10
sg11
g12
sg13
g14
sg15
g38
ssba(i__main__
Morph_info
p51
(dp52
g3
S'ladakI'
p53
sg5
g6
sg7
(dp54
g9
g27
sg11
g12
sg13
g14
sg15
g38
ssba.(lp0
(i__main__
Morph_info
p1
(dp2
S'root'
p3
S'ne'
p4
sS'word'
p5
S'ne'
p6
sS'morph_dic'
p7
(dp8
S'cat'
p9
S'prsg'
p10
ssba.(lp0
(i__main__
Morph_info
p1
(dp2
S'root'
p3
S'wIna'
p4
sS'word'
p5
S'wIna'
p6
sS'morph_dic'
p7
(dp8
S'case'
p9
S'd'
p10
sS'num'
p11
S's'
p12
sS'gen'
p13
S'm'
p14
sS'cat'
p15
S'n'
p16
ssba(i__main__
Morph_info
p17
(dp18
g3
S'wIna'
p19
sg5
g6
sg7
(dp20
g9
g10
sg11
S'p'
p21
sg13
g14
sg15
g16
ssba(i__main__
Morph_info
p22
(dp23
g3
S'wIna'
p24
sg5
g6
sg7
(dp25
g9
S'o'
p26
sg11
g12
sg13
g14
sg15
g16
ssba.(lp0
(i__main__
Morph_info
p1
(dp2
S'root'
p3
S'purAnA'
p4
sS'word'
p5
S'purAnI'
p6
sS'morph_dic'
p7
(dp8
S'case'
p9
S'd'
p10
sS'num'
p11
S's'
p12
sS'gen'
p13
S'f'
p14
sS'cat'
p15
S'adj'
p16
ssba(i__main__
Morph_info
p17
(dp18
g3
S'purAnA'
p19
sg5
g6
sg7
(dp20
g9
g10
sg11
S'p'
p21
sg13
g14
sg15
S'adj'
p22
ssba(i__main__
Morph_info
p23
(dp24
g3
S'purAnA'
p25
sg5
g6
sg7
(dp26
g9
S'o'
p27
sg11
g12
sg13
g14
sg15
S'adj'
p28
ssba(i__main__
Morph_info
p29
(dp30
g3
S'purAnA'
p31
sg5
g6
sg7
(dp32
g9
g27
sg11
g21
sg13
g14
sg15
S'adj'
p33
ssba(i__main__
Morph_info
p34
(dp35
g3
S'purAnA'
p36
sg5
g6
sg7
(dp37
g9
g10
sg11
g12
sg13
g14
sg15
S'n'
p38
ssba(i__main__
Morph_info
p39
(dp40
g3
S'purAnA'
p41
sg5
g6
sg7
(dp42
g9
g10
sg11
g21
sg13
g14
sg15
g38
ssba(i__main__
Morph_info
p43
(dp44
g3
S'purAnA'
p45
sg5
g6
sg7
(dp46
g9
g27
sg11
g12
sg13
g14
sg15
g38
ssba(i__main__
Morph_info
p47
(dp48
g3
S'purAnI'
p49
sg5
g6
sg7
(dp50
g9
g10
sg11
g12
sg13
g14
sg15
g38
ssba(i__main__
Morph_info
p51
(dp52
g3
S'purAnI'
p53
sg5
g6
sg7
(dp54
g9
g27
sg11
g12
sg13
g14
sg15
g38
ssba.(lp0
(i__main__
Morph_info
p1
(dp2
S'root'
p3
S'kiwAba'
p4
sS'word'
p5
S'kiwAbeM'
p6
sS'morph_dic'
p7
(dp8
S'case'
p9
S'd'
p10
sS'num'
p11
S'p'
p12
sS'gen'
p13
S'f'
p14
sS'cat'
p15
S'n'
p16
ssba.(lp0
(i__main__
Morph_info
p1
(dp2
S'root'
p3
S'beca'
p4
sS'word'
p5
S'becIM'
p6
sS'morph_dic'
p7
(dp8
S'tam'
p9
S'yA'
p10
sS'num'
p11
S'p'
p12
sS'gen'
p13
S'f'
p14
sS'per'
p15
S'u'
p16
sS'cat'
p17
S'v'
p18
ssba(i__main__
Morph_info
p19
(dp20
g3
S'beca'
p21
sg5
g6
sg7
(dp22
g9
S'yA'
p23
sg11
g12
sg13
g14
sg15
S'm'
p24
sg17
g18
ssba(i__main__
Morph_info
p25
(dp26
g3
S'beca'
p27
sg5
g6
sg7
(dp28
g9
S'yA'
p29
sg11
g12
sg13
g14
sg15
S'm_h'
p30
sg17
g18
ssba(i__main__
Morph_info
p31
(dp32
g3
S'beca'
p33
sg5
g6
sg7
(dp34
g9
S'yA'
p35
sg11
g12
sg13
g14
sg15
S'a'
p36
sg17
g18
ssba.(lp0
(i__main__
Morph_info
p1
(dp2
S'root'
p3
S'ladakA'
p4
sS'word'
p5
S'ladakI'
p6
sS'morph_dic'
p7
(dp8
S'case'
p9
S'd'
p10
sS'num'
p11
S's'
p12
sS'gen'
p13
S'f'
p14
sS'cat'
p15
S'adj'
p16
ssba(i__main__
Morph_info
p17
(dp18
g3
S'ladakA'
p19
sg5
g6
sg7
(dp20
g9
g10
sg11
S'p'
p21
sg13
g14
sg15
S'adj'
p22
ssba(i__main__
Morph_info
p23
(dp24
g3
S'ladakA'
p25
sg5
g6
sg7
(dp26
g9
S'o'
p27
sg11
g12
sg13
g14
sg15
S'adj'
p28
ssba(i__main__
Morph_info
p29
(dp30
g3
S'ladakA'
p31
sg5
g6
sg7
(dp32
g9
g27
sg11
g21
sg13
g14
sg15
S'adj'
p33
ssba(i__main__
Morph_info
p34
(dp35
g3
S'ladakA'
p36
sg5
g6
sg7
(dp37
g9
g10
sg11
g12
sg13
g14
sg15
S'n'
p38
ssba(i__main__
Morph_info
p39
(dp40
g3
S'ladakA'
p41
sg5
g6
sg7
(dp42
g9
g10
sg11
g21
sg13
g14
sg15
g38
ssba(i__main__
Morph_info
p43
(dp44
g3
S'ladakA'
p45
sg5
g6
sg7
(dp46
g9
g27
sg11
g12
sg13
g14
sg15
g38
ssba(i__main__
Morph_info
p47
(dp48
g3
S'ladakI'
p49
sg5
g6
sg7
(dp50
g9
g10
sg11
g12
sg13
g14
sg15
g38
ssba(i__main__
Morph_info
p51
(dp52
g3
S'ladakI'
p53
sg5
g6
sg7
(dp54
g9
g27
sg11
g12
sg13
g14
sg15
g38
ssba.(lp0
(i__main__
Morph_info
p1
(dp2
S'root'
p3
S'ne'
p4
sS'word'
p5
S'ne'
p6
sS'morph_dic'
p7
(dp8
S'cat'
p9
S'prsg'
p10
ssba.(lp0
(i__main__
Morph_info
p1
(dp2
S'root'
p3
S'wIna'
p4
sS'word'
p5
S'wIna'
p6
sS'morph_dic'
p7
(dp8
S'case'
p9
S'd'
p10
sS'num'
p11
S's'
p12
sS'gen'
p13
S'm'
p14
sS'cat'
p15
S'n'
p16
ssba(i__main__
Morph_info
p17
(dp18
g3
S'wIna'
p19
sg5
g6
sg7
(dp20
g9
g10
sg11
S'p'
p21
sg13
g14
sg15
g16
ssba(i__main__
Morph_info
p22
(dp23
g3
S'wIna'
p24
sg5
g6
sg7
(dp25
g9
S'o'
p26
sg11
g12
sg13
g14
sg15
g16
ssba.(lp0
(i__main__
Morph_info
p1
(dp2
S'root'
p3
S'purAnA'
p4
sS'word'
p5
S'purAnI'
p6
sS'morph_dic'
p7
(dp8
S'case'
p9
S'd'
p10
sS'num'
p11
S's'
p12
sS'gen'
p13
S'f'
p14
sS'cat'
p15
S'adj'
p16
ssba(i__main__
Morph_info
p17
(dp18
g3
S'purAnA'
p19
sg5
g6
sg7
(dp20
g9
g10
sg11
S'p'
p21
sg13
g14
sg15
S'adj'
p22
ssba(i__main__
Morph_info
p23
(dp24
g3
S'purAnA'
p25
sg5
g6
sg7
(dp26
g9
S'o'
p27
sg11
g12
sg13
g14
sg15
S'adj'
p28
ssba(i__main__
Morph_info
p29
(dp30
g3
S'purAnA'
p31
sg5
g6
sg7
(dp32
g9
g27
sg11
g21
sg13
g14
sg15
S'adj'
p33
ssba(i__main__
Morph_info
p34
(dp35
g3
S'purAnA'
p36
sg5
g6
sg7
(dp37
g9
g10
sg11
g12
sg13
g14
sg15
S'n'
p38
ssba(i__main__
Morph_info
p39
(dp40
g3
S'purAnA'
p41
sg5
g6
sg7
(dp42
g9
g10
sg11
g21
sg13
g14
sg15
g38
ssba(i__main__
Morph_info
p43
(dp44
g3
S'purAnA'
p45
sg5
g6
sg7
(dp46
g9
g27
sg11
g12
sg13
g14
sg15
g38
ssba(i__main__
Morph_info
p47
(dp48
g3
S'purAnI'
p49
sg5
g6
sg7
(dp50
g9
g10
sg11
g12
sg13
g14
sg15
g38
ssba(i__main__
Morph_info
p51
(dp52
g3
S'purAnI'
p53
sg5
g6
sg7
(dp54
g9
g27
sg11
g12
sg13
g14
sg15
g38
ssba.(lp0
(i__main__
Morph_info
p1
(dp2
S'root'
p3
S'kiwAba'
p4
sS'word'
p5
S'kiwAbeM'
p6
sS'morph_dic'
p7
(dp8
S'case'
p9
S'd'
p10
sS'num'
p11
S'p'
p12
sS'gen'
p13
S'f'
p14
sS'cat'
p15
S'n'
p16
ssba.(lp0
(i__main__
Morph_info
p1
(dp2
S'root'
p3
S'beca'
p4
sS'word'
p5
S'becIM'
p6
sS'morph_dic'
p7
(dp8
S'tam'
p9
S'yA'
p10
sS'num'
p11
S'p'
p12
sS'gen'
p13
S'f'
p14
sS'per'
p15
S'u'
p16
sS'cat'
p17
S'v'
p18
ssba(i__main__
Morph_info
p19
(dp20
g3
S'beca'
p21
sg5
g6
sg7
(dp22
g9
S'yA'
p23
sg11
g12
sg13
g14
sg15
S'm'
p24
sg17
g18
ssba(i__main__
Morph_info
p25
(dp26
g3
S'beca'
p27
sg5
g6
sg7
(dp28
g9
S'yA'
p29
sg11
g12
sg13
g14
sg15
S'm_h'
p30
sg17
g18
ssba(i__main__
Morph_info
p31
(dp32
g3
S'beca'
p33
sg5
g6
sg7
(dp34
g9
S'yA'
p35
sg11
g12
sg13
g14
sg15
S'a'
p36
sg17
g18
ssba.(lp0
(i__main__
Morph_info
p1
(dp2
S'root'
p3
S'ladakA'
p4
sS'word'
p5
S'ladakI'
p6
sS'morph_dic'
p7
(dp8
S'case'
p9
S'd'
p10
sS'num'
p11
S's'
p12
sS'gen'
p13
S'f'
p14
sS'cat'
p15
S'adj'
p16
ssba(i__main__
Morph_info
p17
(dp18
g3
S'ladakA'
p19
sg5
g6
sg7
(dp20
g9
g10
sg11
S'p'
p21
sg13
g14
sg15
S'adj'
p22
ssba(i__main__
Morph_info
p23
(dp24
g3
S'ladakA'
p25
sg5
g6
sg7
(dp26
g9
S'o'
p27
sg11
g12
sg13
g14
sg15
S'adj'
p28
ssba(i__main__
Morph_info
p29
(dp30
g3
S'ladakA'
p31
sg5
g6
sg7
(dp32
g9
g27
sg11
g21
sg13
g14
sg15
S'adj'
p33
ssba(i__main__
Morph_info
p34
(dp35
g3
S'ladakA'
p36
sg5
g6
sg7
(dp37
g9
g10
sg11
g12
sg13
g14
sg15
S'n'
p38
ssba(i__main__
Morph_info
p39
(dp40
g3
S'ladakA'
p41
sg5
g6
sg7
(dp42
g9
g10
sg11
g21
sg13
g14
sg15
g38
ssba(i__main__
Morph_info
p43
(dp44
g3
S'ladakA'
p45
sg5
g6
sg7
(dp46
g9
g27
sg11
g12
sg13
g14
sg15
g38
ssba(i__main__
Morph_info
p47
(dp48
g3
S'ladakI'
p49
sg5
g6
sg7
(dp50
g9
g10
sg11
g12
sg13
g14
sg15
g38
ssba(i__main__
Morph_info
p51
(dp52
g3
S'ladakI'
p53
sg5
g6
sg7
(dp54
g9
g27
sg11
g12
sg13
g14
sg15
g38
ssba.(lp0
(i__main__
Morph_info
p1
(dp2
S'root'
p3
S'ne'
p4
sS'word'
p5
S'ne'
p6
sS'morph_dic'
p7
(dp8
S'cat'
p9
S'prsg'
p10
ssba.(lp0
(i__main__
Morph_info
p1
(dp2
S'root'
p3
S'wIna'
p4
sS'word'
p5
S'wIna'
p6
sS'morph_dic'
p7
(dp8
S'case'
p9
S'd'
p10
sS'num'
p11
S's'
p12
sS'gen'
p13
S'm'
p14
sS'cat'
p15
S'n'
p16
ssba(i__main__
Morph_info
p17
(dp18
g3
S'wIna'
p19
sg5
g6
sg7
(dp20
g9
g10
sg11
S'p'
p21
sg13
g14
sg15
g16
ssba(i__main__
Morph_info
p22
(dp23
g3
S'wIna'
p24
sg5
g6
sg7
(dp25
g9
S'o'
p26
sg11
g12
sg13
g14
sg15
g16
ssba.(lp0
(i__main__
Morph_info
p1
(dp2
S'root'
p3
S'purAnA'
p4
sS'word'
p5
S'purAnI'
p6
sS'morph_dic'
p7
(dp8
S'case'
p9
S'd'
p10
sS'num'
p11
S's'
p12
sS'gen'
p13
S'f'
p14
sS'cat'
p15
S'adj'
p16
ssba(i__main__
Morph_info
p17
(dp18
g3
S'purAnA'
p19
sg5
g6
sg7
(dp20
g9
g10
sg11
S'p'
p21
sg13
g14
sg15
S'adj'
p22
ssba(i__main__
Morph_info
p23
(dp24
g3
S'purAnA'
p25
sg5
g6
sg7
(dp26
g9
S'o'
p27
sg11
g12
sg13
g14
sg15
S'adj'
p28
ssba(i__main__
Morph_info
p29
(dp30
g3
S'purAnA'
p31
sg5
g6
sg7
(dp32
g9
g27
sg11
g21
sg13
g14
sg15
S'adj'
p33
ssba(i__main__
Morph_info
p34
(dp35
g3
S'purAnA'
p36
sg5
g6
sg7
(dp37
g9
g10
sg11
g12
sg13
g14
sg15
S'n'
p38
ssba(i__main__
Morph_info
p39
(dp40
g3
S'purAnA'
p41
sg5
g6
sg7
(dp42
g9
g10
sg11
g21
sg13
g14
sg15
g38
ssba(i__main__
Morph_info
p43
(dp44
g3
S'purAnA'
p45
sg5
g6
sg7
(dp46
g9
g27
sg11
g12
sg13
g14
sg15
g38
ssba(i__main__
Morph_info
p47
(dp48
g3
S'purAnI'
p49
sg5
g6
sg7
(dp50
g9
g10
sg11
g12
sg13
g14
sg15
g38
ssba(i__main__
Morph_info
p51
(dp52
g3
S'purAnI'
p53
sg5
g6
sg7
(dp54
g9
g27
sg11
g12
sg13
g14
sg15
g38
ssba.(lp0
(i__main__
Morph_info
p1
(dp2
S'root'
p3
S'kiwAba'
p4
sS'word'
p5
S'kiwAbeM'
p6
sS'morph_dic'
p7
(dp8
S'case'
p9
S'd'
p10
sS'num'
p11
S'p'
p12
sS'gen'
p13
S'f'
p14
sS'cat'
p15
S'n'
p16
ssba.(lp0
(i__main__
Morph_info
p1
(dp2
S'root'
p3
S'beca'
p4
sS'word'
p5
S'becIM'
p6
sS'morph_dic'
p7
(dp8
S'tam'
p9
S'yA'
p10
sS'num'
p11
S'p'
p12
sS'gen'
p13
S'f'
p14
sS'per'
p15
S'u'
p16
sS'cat'
p17
S'v'
p18
ssba(i__main__
Morph_info
p19
(dp20
g3
S'beca'
p21
sg5
g6
sg7
(dp22
g9
S'yA'
p23
sg11
g12
sg13
g14
sg15
S'm'
p24
sg17
g18
ssba(i__main__
Morph_info
p25
(dp26
g3
S'beca'
p27
sg5
g6
sg7
(dp28
g9
S'yA'
p29
sg11
g12
sg13
g14
sg15
S'm_h'
p30
sg17
g18
ssba(i__main__
Morph_info
p31
(dp32
g3
S'beca'
p33
sg5
g6
sg7
(dp34
g9
S'yA'
p35
sg11
g12
sg13
g14
sg15
S'a'
p36
sg17
g18
ssba.(lp0
(i__main__
Morph_info
p1
(dp2
S'root'
p3
S'ladakA'
p4
sS'word'
p5
S'ladakI'
p6
sS'morph_dic'
p7
(dp8
S'case'
p9
S'd'
p10
sS'num'
p11
S's'
p12
sS'gen'
p13
S'f'
p14
sS'cat'
p15
S'adj'
p16
ssba(i__main__
Morph_info
p17
(dp18
g3
S'ladakA'
p19
sg5
g6
sg7
(dp20
g9
g10
sg11
S'p'
p21
sg13
g14
sg15
S'adj'
p22
ssba(i__main__
Morph_info
p23
(dp24
g3
S'ladakA'
p25
sg5
g6
sg7
(dp26
g9
S'o'
p27
sg11
g12
sg13
g14
sg15
S'adj'
p28
ssba(i__main__
Morph_info
p29
(dp30
g3
S'ladakA'
p31
sg5
g6
sg7
(dp32
g9
g27
sg11
g21
sg13
g14
sg15
S'adj'
p33
ssba(i__main__
Morph_info
p34
(dp35
g3
S'ladakA'
p36
sg5
g6
sg7
(dp37
g9
g10
sg11
g12
sg13
g14
sg15
S'n'
p38
ssba(i__main__
Morph_info
p39
(dp40
g3
S'ladakA'
p41
sg5
g6
sg7
(dp42
g9
g10
sg11
g21
sg13
g14
sg15
g38
ssba(i__main__
Morph_info
p43
(dp44
g3
S'ladakA'
p45
sg5
g6
sg7
(dp46
g9
g27
sg11
g12
sg13
g14
sg15
g38
ssba(i__main__
Morph_info
p47
(dp48
g3
S'ladakI'
p49
sg5
g6
sg7
(dp50
g9
g10
sg11
g12
sg13
g14
sg15
g38
ssba(i__main__
Morph_info
p51
(dp52
g3
S'ladakI'
p53
sg5
g6
sg7
(dp54
g9
g27
sg11
g12
sg13
g14
sg15
g38
ssba.(lp0
(i__main__
Morph_info
p1
(dp2
S'root'
p3
S'ne'
p4
sS'word'
p5
S'ne'
p6
sS'morph_dic'
p7
(dp8
S'cat'
p9
S'prsg'
p10
ssba.(lp0
(i__main__
Morph_info
p1
(dp2
S'root'
p3
S'wIna'
p4
sS'word'
p5
S'wIna'
p6
sS'morph_dic'
p7
(dp8
S'case'
p9
S'd'
p10
sS'num'
p11
S's'
p12
sS'gen'
p13
S'm'
p14
sS'cat'
p15
S'n'
p16
ssba(i__main__
Morph_info
p17
(dp18
g3
S'wIna'
p19
sg5
g6
sg7
(dp20
g9
g10
sg11
S'p'
p21
sg13
g14
sg15
g16
ssba(i__main__
Morph_info
p22
(dp23
g3
S'wIna'
p24
sg5
g6
sg7
(dp25
g9
S'o'
p26
sg11
g12
sg13
g14
sg15
g16
ssba.(lp0
(i__main__
Morph_info
p1
(dp2
S'root'
p3
S'purAnA'
p4
sS'word'
p5
S'purAnI'
p6
sS'morph_dic'
p7
(dp8
S'case'
p9
S'd'
p10
sS'num'
p11
S's'
p12
sS'gen'
p13
S'f'
p14
sS'cat'
p15
S'adj'
p16
ssba(i__main__
Morph_info
p17
(dp18
g3
S'purAnA'
p19
sg5
g6
sg7
(dp20
g9
g10
sg11
S'p'
p21
sg13
g14
sg15
S'adj'
p22
ssba(i__main__
Morph_info
p23
(dp24
g3
S'purAnA'
p25
sg5
g6
sg7
(dp26
g9
S'o'
p27
sg11
g12
sg13
g14
sg15
S'adj'
p28
ssba(i__main__
Morph_info
p29
(dp30
g3
S'purAnA'
p31
sg5
g6
sg7
(dp32
g9
g27
sg11
g21
sg13
g14
sg15
S'adj'
p33
ssba(i__main__
Morph_info
p34
(dp35
g3
S'purAnA'
p36
sg5
g6
sg7
(dp37
g9
g10
sg11
g12
sg13
g14
sg15
S'n'
p38
ssba(i__main__
Morph_info
p39
(dp40
g3
S'purAnA'
p41
sg5
g6
sg7
(dp42
g9
g10
sg11
g21
sg13
g14
sg15
g38
ssba(i__main__
Morph_info
p43
(dp44
g3
S'purAnA'
p45
sg5
g6
sg7
(dp46
g9
g27
sg11
g12
sg13
g14
sg15
g38
ssba(i__main__
Morph_info
p47
(dp48
g3
S'purAnI'
p49
sg5
g6
sg7
(dp50
g9
g10
sg11
g12
sg13
g14
sg15
g38
ssba(i__main__
Morph_info
p51
(dp52
g3
S'purAnI'
p53
sg5
g6
sg7
(dp54
g9
g27
sg11
g12
sg13
g14
sg15
g38
ssba.(lp0
(i__main__
Morph_info
p1
(dp2
S'root'
p3
S'kiwAba'
p4
sS'word'
p5
S'kiwAbeM'
p6
sS'morph_dic'
p7
(dp8
S'case'
p9
S'd'
p10
sS'num'
p11
S'p'
p12
sS'gen'
p13
S'f'
p14
sS'cat'
p15
S'n'
p16
ssba.(lp0
(i__main__
Morph_info
p1
(dp2
S'root'
p3
S'beca'
p4
sS'word'
p5
S'becIM'
p6
sS'morph_dic'
p7
(dp8
S'tam'
p9
S'yA'
p10
sS'num'
p11
S'p'
p12
sS'gen'
p13
S'f'
p14
sS'per'
p15
S'u'
p16
sS'cat'
p17
S'v'
p18
ssba(i__main__
Morph_info
p19
(dp20
g3
S'beca'
p21
sg5
g6
sg7
(dp22
g9
S'yA'
p23
sg11
g12
sg13
g14
sg15
S'm'
p24
sg17
g18
ssba(i__main__
Morph_info
p25
(dp26
g3
S'beca'
p27
sg5
g6
sg7
(dp28
g9
S'yA'
p29
sg11
g12
sg13
g14
sg15
S'm_h'
p30
sg17
g18
ssba(i__main__
Morph_info
p31
(dp32
g3
S'beca'
p33
sg5
g6
sg7
(dp34
g9
S'yA'
p35
sg11
g12
sg13
g14
sg15
S'a'
p36
sg17
g18
ssba.(lp0
(i__main__
Morph_info
p1
(dp2
S'root'
p3
S'ladakA'
p4
sS'word'
p5
S'ladakI'
p6
sS'morph_dic'
p7
(dp8
S'case'
p9
S'd'
p10
sS'num'
p11
S's'
p12
sS'gen'
p13
S'f'
p14
sS'cat'
p15
S'adj'
p16
ssba(i__main__
Morph_info
p17
(dp18
g3
S'ladakA'
p19
sg5
g6
sg7
(dp20
g9
g10
sg11
S'p'
p21
sg13
g14
sg15
S'adj'
p22
ssba(i__main__
Morph_info
p23
(dp24
g3
S'ladakA'
p25
sg5
g6
sg7
(dp26
g9
S'o'
p27
sg11
g12
sg13
g14
sg15
S'adj'
p28
ssba(i__main__
Morph_info
p29
(dp30
g3
S'ladakA'
p31
sg5
g6
sg7
(dp32
g9
g27
sg11
g21
sg13
g14
sg15
S'adj'
p33
ssba(i__main__
Morph_info
p34
(dp35
g3
S'ladakA'
p36
sg5
g6
sg7
(dp37
g9
g10
sg11
g12
sg13
g14
sg15
S'n'
p38
ssba(i__main__
Morph_info
p39
(dp40
g3
S'ladakA'
p41
sg5
g6
sg7
(dp42
g9
g10
sg11
g21
sg13
g14
sg15
g38
ssba(i__main__
Morph_info
p43
(dp44
g3
S'ladakA'
p45
sg5
g6
sg7
(dp46
g9
g27
sg11
g12
sg13
g14
sg15
g38
ssba(i__main__
Morph_info
p47
(dp48
g3
S'ladakI'
p49
sg5
g6
sg7
(dp50
g9
g10
sg11
g12
sg13
g14
sg15
g38
ssba(i__main__
Morph_info
p51
(dp52
g3
S'ladakI'
p53
sg5
g6
sg7
(dp54
g9
g27
sg11
g12
sg13
g14
sg15
g38
ssba.(lp0
(i__main__
Morph_info
p1
(dp2
S'root'
p3
S'ne'
p4
sS'word'
p5
S'ne'
p6
sS'morph_dic'
p7
(dp8
S'cat'
p9
S'prsg'
p10
ssba.(lp0
(i__main__
Morph_info
p1
(dp2
S'root'
p3
S'wIna'
p4
sS'word'
p5
S'wIna'
p6
sS'morph_dic'
p7
(dp8
S'case'
p9
S'd'
p10
sS'num'
p11
S's'
p12
sS'gen'
p13
S'm'
p14
sS'cat'
p15
S'n'
p16
ssba(i__main__
Morph_info
p17
(dp18
g3
S'wIna'
p19
sg5
g6
sg7
(dp20
g9
g10
sg11
S'p'
p21
sg13
g14
sg15
g16
ssba(i__main__
Morph_info
p22
(dp23
g3
S'wIna'
p24
sg5
g6
sg7
(dp25
g9
S'o'
p26
sg11
g12
sg13
g14
sg15
g16
ssba.(lp0
(i__main__
Morph_info
p1
(dp2
S'root'
p3
S'purAnA'
p4
sS'word'
p5
S'purAnI'
p6
sS'morph_dic'
p7
(dp8
S'case'
p9
S'd'
p10
sS'num'
p11
S's'
p12
sS'gen'
p13
S'f'
p14
sS'cat'
p15
S'adj'
p16
ssba(i__main__
Morph_info
p17
(dp18
g3
S'purAnA'
p19
sg5
g6
sg7
(dp20
g9
g10
sg11
S'p'
p21
sg13
g14
sg15
S'adj'
p22
ssba(i__main__
Morph_info
p23
(dp24
g3
S'purAnA'
p25
sg5
g6
sg7
(dp26
g9
S'o'
p27
sg11
g12
sg13
g14
sg15
S'adj'
p28
ssba(i__main__
Morph_info
p29
(dp30
g3
S'purAnA'
p31
sg5
g6
sg7
(dp32
g9
g27
sg11
g21
sg13
g14
sg15
S'adj'
p33
ssba(i__main__
Morph_info
p34
(dp35
g3
S'purAnA'
p36
sg5
g6
sg7
(dp37
g9
g10
sg11
g12
sg13
g14
sg15
S'n'
p38
ssba(i__main__
Morph_info
p39
(dp40
g3
S'purAnA'
p41
sg5
g6
sg7
(dp42
g9
g10
sg11
g21
sg13
g14
sg15
g38
ssba(i__main__
Morph_info
p43
(dp44
g3
S'purAnA'
p45
sg5
g6
sg7
(dp46
g9
g27
sg11
g12
sg13
g14
sg15
g38
ssba(i__main__
Morph_info
p47
(dp48
g3
S'purAnI'
p49
sg5
g6
sg7
(dp50
g9
g10
sg11
g12
sg13
g14
sg15
g38
ssba(i__main__
Morph_info
p51
(dp52
g3
S'purAnI'
p53
sg5
g6
sg7
(dp54
g9
g27
sg11
g12
sg13
g14
sg15
g38
ssba.(lp0
(i__main__
Morph_info
p1
(dp2
S'root'
p3
S'kiwAba'
p4
sS'word'
p5
S'kiwAbeM'
p6
sS'morph_dic'
p7
(dp8
S'case'
p9
S'd'
p10
sS'num'
p11
S'p'
p12
sS'gen'
p13
S'f'
p14
sS'cat'
p15
S'n'
p16
ssba.(lp0
(i__main__
Morph_info
p1
(dp2
S'root'
p3
S'beca'
p4
sS'word'
p5
S'becIM'
p6
sS'morph_dic'
p7
(dp8
S'tam'
p9
S'yA'
p10
sS'num'
p11
S'p'
p12
sS'gen'
p13
S'f'
p14
sS'per'
p15
S'u'
p16
sS'cat'
p17
S'v'
p18
ssba(i__main__
Morph_info
p19
(dp20
g3
S'beca'
p21
sg5
g6
sg7
(dp22
g9
S'yA'
p23
sg11
g12
sg13
g14
sg15
S'm'
p24
sg17
g18
ssba(i__main__
Morph_info
p25
(dp26
g3
S'beca'
p27
sg5
g6
sg7
(dp28
g9
S'yA'
p29
sg11
g12
sg13
g14
sg15
S'm_h'
p30
sg17
g18
ssba(i__main__
Morph_info
p31
(dp32
g3
S'beca'
p33
sg5
g6
sg7
(dp34
g9
S'yA'
p35
sg11
g12
sg13
g14
sg15
S'a'
p36
sg17
g18
ssba.(lp0
(i__main__
Morph_info
p1
(dp2
S'root'
p3
S'yaha'
p4
sS'word'
p5
S'yaha'
p6
sS'morph_dic'
p7
(dp8
S'case'
p9
S'd'
p10
sS'parsarg'
p11
S'0'
p12
sS'num'
p13
S's'
p14
sS'gen'
p15
S'm'
p16
sS'per'
p17
S'a'
p18
sS'cat'
p19
S'p'
p20
ssba(i__main__
Morph_info
p21
(dp22
g3
S'yaha'
p23
sg5
g6
sg7
(dp24
g9
g10
sg11
g12
sg13
g14
sg15
S'f'
p25
sg17
g18
sg19
g20
ssba.(lp0
(i__main__
Morph_info
p1
(dp2
S'root'
p3
S'parIkRaNa'
p4
sS'word'
p5
S'parIkRaNa'
p6
sS'morph_dic'
p7
(dp8
S'case'
p9
S'd'
p10
sS'num'
p11
S's'
p12
sS'gen'
p13
S'm'
p14
sS'cat'
p15
S'n'
p16
ssba(i__main__
Morph_info
p17
(dp18
g3
S'parIkRaNa'
p19
sg5
g6
sg7
(dp20
g9
g10
sg11
S'p'
p21
sg13
g14
sg15
g16
ssba(i__main__
Morph_info
p22
(dp23
g3
S'parIkRaNa'
p24
sg5
g6
sg7
(dp25
g9
S'o'
p26
sg11
g12
sg13
g14
sg15
g16
ssba.(lp0
(i__main__
Morph_info
p1
(dp2
S'root'
p3
S'kA'
p4
sS'word'
p5
S'ke'
p6
sS'morph_dic'
p7
(dp8
S'case'
p9
S'd'
p10
sS'num'
p11
S'p'
p12
sS'gen'
p13
S'm'
p14
sS'cat'
p15
S'adj'
p16
ssba(i__main__
Morph_info
p17
(dp18
g3
S'kA'
p19
sg5
g6
sg7
(dp20
g9
S'o'
p21
sg11
S's'
p22
sg13
g14
sg15
S'adj'
p23
ssba(i__main__
Morph_info
p24
(dp25
g3
S'kA'
p26
sg5
g6
sg7
(dp27
g9
g21
sg11
g12
sg13
g14
sg15
S'adj'
p28
ssba(i__main__
Morph_info
p29
(dp30
g3
S'kA'
p31
sg5
g6
sg7
(dp32
g9
g10
sg11
g12
sg13
g14
sg15
S'n'
p33
ssba(i__main__
Morph_info
p34
(dp35
g3
S'kA'
p36
sg5
g6
sg7
(dp37
g9
g21
sg11
g22
sg13
g14
sg15
g33
ssba(i__main__
Morph_info
p38
(dp39
g3
S'kA'
p40
sg5
g6
sg7
(dp41
g9
g10
sg11
g12
sg13
g14
sg15
S'sh'
p42
ssba(i__main__
Morph_info
p43
(dp44
g3
S'kA'
p45
sg5
g6
sg7
(dp46
g9
g21
sg11
g22
sg13
g14
sg15
S'sh'
p47
ssba(i__main__
Morph_info
p48
(dp49
g3
S'kA'
p50
sg5
g6
sg7
(dp51
g9
g21
sg11
g12
sg13
g14
sg15
S'sh'
p52
ssba.(lp0
(i__main__
Morph_info
p1
(dp2
S'root'
p3
S'le'
p4
sS'word'
p5
S'lie'
p6
sS'morph_dic'
p7
(dp8
S'tam'
p9
S'yA'
p10
sS'num'
p11
S'p'
p12
sS'gen'
p13
S'm'
p14
sS'per'
p15
S'u'
p16
sS'cat'
p17
S'v'
p18
ssba(i__main__
Morph_info
p19
(dp20
g3
S'le'
p21
sg5
g6
sg7
(dp22
g9
S'yA'
p23
sg11
g12
sg13
g14
sg15
g14
sg17
g18
ssba(i__main__
Morph_info
p24
(dp25
g3
S'le'
p26
sg5
g6
sg7
(dp27
g9
S'yA'
p28
sg11
g12
sg13
g14
sg15
S'm_h'
p29
sg17
g18
ssba(i__main__
Morph_info
p30
(dp31
g3
S'le'
p32
sg5
g6
sg7
(dp33
g9
S'yA'
p34
sg11
g12
sg13
g14
sg15
S'a'
p35
sg17
g18
ssba.(lp0
(i__main__
Morph_info
p1
(dp2
S'root'
p3
S'nayA'
p4
sS'word'
p5
S'nayA'
p6
sS'morph_dic'
p7
(dp8
S'case'
p9
S'd'
p10
sS'num'
p11
S's'
p12
sS'gen'
p13
S'm'
p14
sS'cat'
p15
S'adj'
p16
ssba(i__main__
Morph_info
p17
(dp18
g3
S'nayA'
p19
sg5
g6
sg7
(dp20
g9
g10
sg11
g12
sg13
g14
sg15
S'n'
p21
ssba.(lp0
(i__main__
Morph_info
p1
(dp2
S'root'
p3
S'vAkya'
p4
sS'word'
p5
S'vAkya'
p6
sS'morph_dic'
p7
(dp8
S'case'
p9
S'd'
p10
sS'num'
p11
S's'
p12
sS'gen'
p13
S'm'
p14
sS'cat'
p15
S'n'
p16
ssba(i__main__
Morph_info
p17
(dp18
g3
S'vAkya'
p19
sg5
g6
sg7
(dp20
g9
g10
sg11
S'p'
p21
sg13
g14
sg15
g16
ssba(i__main__
Morph_info
p22
(dp23
g3
S'vAkya'
p24
sg5
g6
sg7
(dp25
g9
S'o'
p26
sg11
g12
sg13
g14
sg15
g16
ssba.(lp0
(i__main__
Morph_info
p1
(dp2
S'root'
p3
S'hE'
p4
sS'word'
p5
S'hE'
p6
sS'morph_dic'
p7
(dp8
S'tam'
p9
S'hE'
p10
sS'num'
p11
S's'
p12
sS'gen'
p13
S'm'
p14
sS'per'
p15
g14
sS'cat'
p16
S'v'
p17
ssba(i__main__
Morph_info
p18
(dp19
g3
S'hE'
p20
sg5
g6
sg7
(dp21
g9
S'hE'
p22
sg11
g12
sg13
g14
sg15
S'a'
p23
sg16
g17
ssba(i__main__
Morph_info
p24
(dp25
g3
S'hE'
p26
sg5
g6
sg7
(dp27
g9
S'hE'
p28
sg11
g12
sg13
S'f'
p29
sg15
g14
sg16
g17
ssba(i__main__
Morph_info
p30
(dp31
g3
S'hE'
p32
sg5
g6
sg7
(dp33
g9
S'hE'
p34
sg11
g12
sg13
g29
sg15
g23
sg16
g17
ssba(i__main__
Morph_info
p35
(dp36
g3
S'ho'
p37
sg5
g6
sg7
(dp38
g9
S'hE'
p39
sg11
g12
sg13
g29
sg15
g23
sg16
g17
ssba.(lp0
(i__main__
Morph_info
p1
(dp2
S'root'
p3
S'vaha'
p4
sS'word'
p5
S'vaha'
p6
sS'morph_dic'
p7
(dp8
S'case'
p9
S'd'
p10
sS'parsarg'
p11
S'0'
p12
sS'num'
p13
S's'
p14
sS'gen'
p15
S'm'
p16
sS'per'
p17
S'a'
p18
sS'cat'
p19
S'p'
p20
ssba(i__main__
Morph_info
p21
(dp22
g3
S'vaha'
p23
sg5
g6
sg7
(dp24
g9
g10
sg11
g12
sg13
g14
sg15
S'f'
p25
sg17
g18
sg19
g20
ssba.(lp0
(i__main__
Morph_info
p1
(dp2
S'root'
p3
S'jA'
p4
sS'word'
p5
S'jA'
p6
sS'morph_dic'
p7
(dp8
S'tam'
p9
S'0'
p10
sS'num'
p11
S's'
p12
sS'gen'
p13
S'f'
p14
sS'per'
p15
S'u'
p16
sS'cat'
p17
S'v'
p18
ssba(i__main__
Morph_info
p19
(dp20
g3
S'jA'
p21
sg5
g6
sg7
(dp22
g9
g10
sg11
S'p'
p23
sg13
g14
sg15
S'a'
p24
sg17
g18
ssba(i__main__
Morph_info
p25
(dp26
g3
S'jA'
p27
sg5
g6
sg7
(dp28
g9
g10
sg11
g23
sg13
g14
sg15
S'm_h'
p29
sg17
g18
ssba(i__main__
Morph_info
p30
(dp31
g3
S'jA'
p32
sg5
g6
sg7
(dp33
g9
g10
sg11
g23
sg13
g14
sg15
S'm'
p34
sg17
g18
ssba(i__main__
Morph_info
p35
(dp36
g3
S'jA'
p37
sg5
g6
sg7
(dp38
g9
g10
sg11
g23
sg13
g14
sg15
g16
sg17
g18
ssba(i__main__
Morph_info
p39
(dp40
g3
S'jA'
p41
sg5
g6
sg7
(dp42
g9
S'imper'
p43
sg11
g12
sg13
g14
sg15
S'm_h0'
p44
sg17
g18
ssba(i__main__
Morph_info
p45
(dp46
g3
S'jA'
p47
sg5
g6
sg7
(dp48
g9
g10
sg11
g12
sg13
g14
sg15
g24
sg17
g18
ssba(i__main__
Morph_info
p49
(dp50
g3
S'jA'
p51
sg5
g6
sg7
(dp52
g9
g10
sg11
g12
sg13
g14
sg15
S'm_h'
p53
sg17
g18
ssba(i__main__
Morph_info
p54
(dp55
g3
S'jA'
p56
sg5
g6
sg7
(dp57
g9
g10
sg11
g12
sg13
g14
sg15
g34
sg17
g18
ssba(i__main__
Morph_info
p58
(dp59
g3
S'jA'
p60
sg5
g6
sg7
(dp61
g9
g10
sg11
g12
sg13
g34
sg15
g16
sg17
g18
ssba(i__main__
Morph_info
p62
(dp63
g3
S'jA'
p64
sg5
g6
sg7
(dp65
g9
g10
sg11
g23
sg13
g34
sg15
g24
sg17
g18
ssba(i__main__
Morph_info
p66
(dp67
g3
S'jA'
p68
sg5
g6
sg7
(dp69
g9
g10
sg11
g23
sg13
g34
sg15
S'm_h'
p70
sg17
g18
ssba(i__main__
Morph_info
p71
(dp72
g3
S'jA'
p73
sg5
g6
sg7
(dp74
g9
g10
sg11
g23
sg13
g34
sg15
g34
sg17
g18
ssba(i__main__
Morph_info
p75
(dp76
g3
S'jA'
p77
sg5
g6
sg7
(dp78
g9
g10
sg11
g23
sg13
g34
sg15
g16
sg17
g18
ssba(i__main__
Morph_info
p79
(dp80
g3
S'jA'
p81
sg5
g6
sg7
(dp82
g9
S'imper'
p83
sg11
g12
sg13
g34
sg15
S'm_h0'
p84
sg17
g18
ssba(i__main__
Morph_info
p85
(dp86
g3
S'jA'
p87
sg5
g6
sg7
(dp88
g9
g10
sg11
g12
sg13
g34
sg15
g24
sg17
g18
ssba(i__main__
Morph_info
p89
(dp90
g3
S'jA'
p91
sg5
g6
sg7
(dp92
g9
g10
sg11
g12
sg13
g34
sg15
S'm_h'
p93
sg17
g18
ssba(i__main__
Morph_info
p94
(dp95
g3
S'jA'
p96
sg5
g6
sg7
(dp97
g9
g10
sg11
g12
sg13
g34
sg15
g34
sg17
g18
ssba.(lp0
(i__main__
Morph_info
p1
(dp2
S'root'
p3
S'raha'
p4
sS'word'
p5
S'rahA'
p6
sS'morph_dic'
p7
(dp8
S'tam'
p9
S'yA'
p10
sS'num'
p11
S's'
p12
sS'gen'
p13
S'm'
p14
sS'per'
p15
S'u'
p16
sS'cat'
p17
S'v'
p18
ssba(i__main__
Morph_info
p19
(dp20
g3
S'raha'
p21
sg5
g6
sg7
(dp22
g9
S'yA'
p23
sg11
g12
sg13
g14
sg15
g14
sg17
g18
ssba(i__main__
Morph_info
p24
(dp25
g3
S'raha'
p26
sg5
g6
sg7
(dp27
g9
S'yA'
p28
sg11
g12
sg13
g14
sg15
S'm_h'
p29
sg17
g18
ssba(i__main__
Morph_info
p30
(dp31
g3
S'raha'
p32
sg5
g6
sg7
(dp33
g9
S'yA'
p34
sg11
g12
sg13
g14
sg15
S'a'
p35
sg17
g18
ssba.(lp0
(i__main__
Morph_info
p1
(dp2
S'root'
p3
S'hE'
p4
sS'word'
p5
S'hE'
p6
sS'morph_dic'
p7
(dp8
S'tam'
p9
S'hE'
p10
sS'num'
p11
S's'
p12
sS'gen'
p13
S'm'
p14
sS'per'
p15
g14
sS'cat'
p16
S'v'
p17
ssba(i__main__
Morph_info
p18
(dp19
g3
S'hE'
p20
sg5
g6
sg7
(dp21
g9
S'hE'
p22
sg11
g12
sg13
g14
sg15
S'a'
p23
sg16
g17
ssba(i__main__
Morph_info
p24
(dp25
g3
S'hE'
p26
sg5
g6
sg7
(dp27
g9
S'hE'
p28
sg11
g12
sg13
S'f'
p29
sg15
g14
sg16
g17
ssba(i__main__
Morph_info
p30
(dp31
g3
S'hE'
p32
sg5
g6
sg7
(dp33
g9
S'hE'
p34
sg11
g12
sg13
g29
sg15
g23
sg16
g17
ssba(i__main__
Morph_info
p35
(dp36
g3
S'ho'
p37
sg5
g6
sg7
(dp38
g9
S'hE'
p39
sg11
g12
sg13
g29
sg15
g23
sg16
g17
ssba.(lp0
(i__main__
Morph_info
p1
(dp2
S'root'
p3
S'vaha'
p4
sS'word'
p5
S'vaha'
p6
sS'morph_dic'
p7
(dp8
S'case'
p9
S'd'
p10
sS'parsarg'
p11
S'0'
p12
sS'num'
p13
S's'
p14
sS'gen'
p15
S'm'
p16
sS'per'
p17
S'a'
p18
sS'cat'
p19
S'p'
p20
ssba(i__main__
Morph_info
p21
(dp22
g3
S'vaha'
p23
sg5
g6
sg7
(dp24
g9
g10
sg11
g12
sg13
g14
sg15
S'f'
p25
sg17
g18
sg19
g20
ssba.(lp0
(i__main__
Morph_info
p1
(dp2
S'root'
p3
S'jA'
p4
sS'word'
p5
S'jA'
p6
sS'morph_dic'
p7
(dp8
S'tam'
p9
S'0'
p10
sS'num'
p11
S's'
p12
sS'gen'
p13
S'f'
p14
sS'per'
p15
S'u'
p16
sS'cat'
p17
S'v'
p18
ssba(i__main__
Morph_info
p19
(dp20
g3
S'jA'
p21
sg5
g6
sg7
(dp22
g9
g10
sg11
S'p'
p23
sg13
g14
sg15
S'a'
p24
sg17
g18
ssba(i__main__
Morph_info
p25
(dp26
g3
S'jA'
p27
sg5
g6
sg7
(dp28
g9
g10
sg11
g23
sg13
g14
sg15
S'm_h'
p29
sg17
g18
ssba(i__main__
Morph_info
p30
(dp31
g3
S'jA'
p32
sg5
g6
sg7
(dp33
g9
g10
sg11
g23
sg13
g14
sg15
S'm'
p34
sg17
g18
ssba(i__main__
Morph_info
p35
(dp36
g3
S'jA'
p37
sg5
g6
sg7
(dp38
g9
g10
sg11
g23
sg13
g14
sg15
g16
sg17
g18
ssba(i__main__
Morph_info
p39
(dp40
g3
S'jA'
p41
sg5
g6
sg7
(dp42
g9
S'imper'
p43
sg11
g12
sg13
g14
sg15
S'm_h0'
p44
sg17
g18
ssba(i__main__
Morph_info
p45
(dp46
g3
S'jA'
p47
sg5
g6
sg7
(dp48
g9
g10
sg11
g12
sg13
g14
sg15
g24
sg17
g18
ssba(i__main__
Morph_info
p49
(dp50
g3
S'jA'
p51
sg5
g6
sg7
(dp52
g9
g10
sg11
g12
sg13
g14
sg15
S'm_h'
p53
sg17
g18
ssba(i__main__
Morph_info
p54
(dp55
g3
S'jA'
p56
sg5
g6
sg7
(dp57
g9
g10
sg11
g12
sg13
g14
sg15
g34
sg17
g18
ssba(i__main__
Morph_info
p58
(dp59
g3
S'jA'
p60
sg5
g6
sg7
(dp61
g9
g10
sg11
g12
sg13
g34
sg15
g16
sg17
g18
ssba(i__main__
Morph_info
p62
(dp63
g3
S'jA'
p64
sg5
g6
sg7
(dp65
g9
g10
sg11
g23
sg13
g34
sg15
g24
sg17
g18
ssba(i__main__
Morph_info
p66
(dp67
g3
S'jA'
p68
sg5
g6
sg7
(dp69
g9
g10
sg11
g23
sg13
g34
sg15
S'm_h'
p70
sg17
g18
ssba(i__main__
Morph_info
p71
(dp72
g3
S'jA'
p73
sg5
g6
sg7
(dp74
g9
g10
sg11
g23
sg13
g34
sg15
g34
sg17
g18
ssba(i__main__
Morph_info
p75
(dp76
g3
S'jA'
p77
sg5
g6
sg7
(dp78
g9
g10
sg11
g23
sg13
g34
sg15
g16
sg17
g18
ssba(i__main__
Morph_info
p79
(dp80
g3
S'jA'
p81
sg5
g6
sg7
(dp82
g9
S'imper'
p83
sg11
g12
sg13
g34
sg15
S'm_h0'
p84
sg17
g18
ssba(i__main__
Morph_info
p85
(dp86
g3
S'jA'
p87
sg5
g6
sg7
(dp88
g9
g10
sg11
g12
sg13
g34
sg15
g24
sg17
g18
ssba(i__main__
Morph_info
p89
(dp90
g3
S'jA'
p91
sg5
g6
sg7
(dp92
g9
g10
sg11
g12
sg13
g34
sg15
S'm_h'
p93
sg17
g18
ssba(i__main__
Morph_info
p94
(dp95
g3
S'jA'
p96
sg5
g6
sg7
(dp97
g9
g10
sg11
g12
sg13
g34
sg15
g34
sg17
g18
ssba.(lp0
(i__main__
Morph_info
p1
(dp2
S'root'
p3
S'raha'
p4
sS'word'
p5
S'rahA'
p6
sS'morph_dic'
p7
(dp8
S'tam'
p9
S'yA'
p10
sS'num'
p11
S's'
p12
sS'gen'
p13
S'm'
p14
sS'per'
p15
S'u'
p16
sS'cat'
p17
S'v'
p18
ssba(i__main__
Morph_info
p19
(dp20
g3
S'raha'
p21
sg5
g6
sg7
(dp22
g9
S'yA'
p23
sg11
g12
sg13
g14
sg15
g14
sg17
g18
ssba(i__main__
Morph_info
p24
(dp25
g3
S'raha'
p26
sg5
g6
sg7
(dp27
g9
S'yA'
p28
sg11
g12
sg13
g14
sg15
S'm_h'
p29
sg17
g18
ssba(i__main__
Morph_info
p30
(dp31
g3
S'raha'
p32
sg5
g6
sg7
(dp33
g9
S'yA'
p34
sg11
g12
sg13
g14
sg15
S'a'
p35
sg17
g18
ssba.(lp0
(i__main__
Morph_info
p1
(dp2
S'root'
p3
S'hE'
p4
sS'word'
p5
S'hE'
p6
sS'morph_dic'
p7
(dp8
S'tam'
p9
S'hE'
p10
sS'num'
p11
S's'
p12
sS'gen'
p13
S'm'
p14
sS'per'
p15
g14
sS'cat'
p16
S'v'
p17
ssba(i__main__
Morph_info
p18
(dp19
g3
S'hE'
p20
sg5
g6
sg7
(dp21
g9
S'hE'
p22
sg11
g12
sg13
g14
sg15
S'a'
p23
sg16
g17
ssba(i__main__
Morph_info
p24
(dp25
g3
S'hE'
p26
sg5
g6
sg7
(dp27
g9
S'hE'
p28
sg11
g12
sg13
S'f'
p29
sg15
g14
sg16
g17
ssba(i__main__
Morph_info
p30
(dp31
g3
S'hE'
p32
sg5
g6
sg7
(dp33
g9
S'hE'
p34
sg11
g12
sg13
g29
sg15
g23
sg16
g17
ssba(i__main__
Morph_info
p35
(dp36
g3
S'ho'
p37
sg5
g6
sg7
(dp38
g9
S'hE'
p39
sg11
g12
sg13
g29
sg15
g23
sg16
g17
ssba.(lp0
(i__main__
Morph_info
p1
(dp2
S'root'
p3
S'vaha'
p4
sS'word'
p5
S'vaha'
p6
sS'morph_dic'
p7
(dp8
S'case'
p9
S'd'
p10
sS'parsarg'
p11
S'0'
p12
sS'num'
p13
S's'
p14
sS'gen'
p15
S'm'
p16
sS'per'
p17
S'a'
p18
sS'cat'
p19
S'p'
p20
ssba(i__main__
Morph_info
p21
(dp22
g3
S'vaha'
p23
sg5
g6
sg7
(dp24
g9
g10
sg11
g12
sg13
g14
sg15
S'f'
p25
sg17
g18
sg19
g20
ssba.(lp0
(i__main__
Morph_info
p1
(dp2
S'root'
p3
S'jA'
p4
sS'word'
p5
S'jA'
p6
sS'morph_dic'
p7
(dp8
S'tam'
p9
S'0'
p10
sS'num'
p11
S's'
p12
sS'gen'
p13
S'f'
p14
sS'per'
p15
S'u'
p16
sS'cat'
p17
S'v'
p18
ssba(i__main__
Morph_info
p19
(dp20
g3
S'jA'
p21
sg5
g6
sg7
(dp22
g9
g10
sg11
S'p'
p23
sg13
g14
sg15
S'a'
p24
sg17
g18
ssba(i__main__
Morph_info
p25
(dp26
g3
S'jA'
p27
sg5
g6
sg7
(dp28
g9
g10
sg11
g23
sg13
g14
sg15
S'm_h'
p29
sg17
g18
ssba(i__main__
Morph_info
p30
(dp31
g3
S'jA'
p32
sg5
g6
sg7
(dp33
g9
g10
sg11
g23
sg13
g14
sg15
S'm'
p34
sg17
g18
ssba(i__main__
Morph_info
p35
(dp36
g3
S'jA'
p37
sg5
g6
sg7
(dp38
g9
g10
sg11
g23
sg13
g14
sg15
g16
sg17
g18
ssba(i__main__
Morph_info
p39
(dp40
g3
S'jA'
p41
sg5
g6
sg7
(dp42
g9
S'imper'
p43
sg11
g12
sg13
g14
sg15
S'm_h0'
p44
sg17
g18
ssba(i__main__
Morph_info
p45
(dp46
g3
S'jA'
p47
sg5
g6
sg7
(dp48
g9
g10
sg11
g12
sg13
g14
sg15
g24
sg17
g18
ssba(i__main__
Morph_info
p49
(dp50
g3
S'jA'
p51
sg5
g6
sg7
(dp52
g9
g10
sg11
g12
sg13
g14
sg15
S'm_h'
p53
sg17
g18
ssba(i__main__
Morph_info
p54
(dp55
g3
S'jA'
p56
sg5
g6
sg7
(dp57
g9
g10
sg11
g12
sg13
g14
sg15
g34
sg17
g18
ssba(i__main__
Morph_info
p58
(dp59
g3
S'jA'
p60
sg5
g6
sg7
(dp61
g9
g10
sg11
g12
sg13
g34
sg15
g16
sg17
g18
ssba(i__main__
Morph_info
p62
(dp63
g3
S'jA'
p64
sg5
g6
sg7
(dp65
g9
g10
sg11
g23
sg13
g34
sg15
g24
sg17
g18
ssba(i__main__
Morph_info
p66
(dp67
g3
S'jA'
p68
sg5
g6
sg7
(dp69
g9
g10
sg11
g23
sg13
g34
sg15
S'm_h'
p70
sg17
g18
ssba(i__main__
Morph_info
p71
(dp72
g3
S'jA'
p73
sg5
g6
sg7
(dp74
g9
g10
sg11
g23
sg13
g34
sg15
g34
sg17
g18
ssba(i__main__
Morph_info
p75
(dp76
g3
S'jA'
p77
sg5
g6
sg7
(dp78
g9
g10
sg11
g23
sg13
g34
sg15
g16
sg17
g18
ssba(i__main__
Morph_info
p79
(dp80
g3
S'jA'
p81
sg5
g6
sg7
(dp82
g9
S'imper'
p83
sg11
g12
sg13
g34
sg15
S'm_h0'
p84
sg17
g18
ssba(i__main__
Morph_info
p85
(dp86
g3
S'jA'
p87
sg5
g6
sg7
(dp88
g9
g10
sg11
g12
sg13
g34
sg15
g24
sg17
g18
ssba(i__main__
Morph_info
p89
(dp90
g3
S'jA'
p91
sg5
g6
sg7
(dp92
g9
g10
sg11
g12
sg13
g34
sg15
S'm_h'
p93
sg17
g18
ssba(i__main__
Morph_info
p94
(dp95
g3
S'jA'
p96
sg5
g6
sg7
(dp97
g9
g10
sg11
g12
sg13
g34
sg15
g34
sg17
g18
ssba.(lp0
(i__main__
Morph_info
p1
(dp2
S'root'
p3
S'raha'
p4
sS'word'
p5
S'rahA'
p6
sS'morph_dic'
p7
(dp8
S'tam'
p9
S'yA'
p10
sS'num'
p11
S's'
p12
sS'gen'
p13
S'm'
p14
sS'per'
p15
S'u'
p16
sS'cat'
p17
S'v'
p18
ssba(i__main__
Morph_info
p19
(dp20
g3
S'raha'
p21
sg5
g6
sg7
(dp22
g9
S'yA'
p23
sg11
g12
sg13
g14
sg15
g14
sg17
g18
ssba(i__main__
Morph_info
p24
(dp25
g3
S'raha'
p26
sg5
g6
sg7
(dp27
g9
S'yA'
p28
sg11
g12
sg13
g14
sg15
S'm_h'
p29
sg17
g18
ssba(i__main__
Morph_info
p30
(dp31
g3
S'raha'
p32
sg5
g6
sg7
(dp33
g9
S'yA'
p34
sg11
g12
sg13
g14
sg15
S'a'
p35
sg17
g18
ssba.(lp0
(i__main__
Morph_info
p1
(dp2
S'root'
p3
S'hE'
p4
sS'word'
p5
S'hE'
p6
sS'morph_dic'
p7
(dp8
S'tam'
p9
S'hE'
p10
sS'num'
p11
S's'
p12
sS'gen'
p13
S'm'
p14
sS'per'
p15
g14
sS'cat'
p16
S'v'
p17
ssba(i__main__
Morph_info
p18
(dp19
g3
S'hE'
p20
sg5
g6
sg7
(dp21
g9
S'hE'
p22
sg11
g12
sg13
g14
sg15
S'a'
p23
sg16
g17
ssba(i__main__
Morph_info
p24
(dp25
g3
S'hE'
p26
sg5
g6
sg7
(dp27
g9
S'hE'
p28
sg11
g12
sg13
S'f'
p29
sg15
g14
sg16
g17
ssba(i__main__
Morph_info
p30
(dp31
g3
S'hE'
p32
sg5
g6
sg7
(dp33
g9
S'hE'
p34
sg11
g12
sg13
g29
sg15
g23
sg16
g17
ssba(i__main__
Morph_info
p35
(dp36
g3
S'ho'
p37
sg5
g6
sg7
(dp38
g9
S'hE'
p39
sg11
g12
sg13
g29
sg15
g23
sg16
g17
ssba.(lp0
(i__main__
Morph_info
p1
(dp2
S'root'
p3
S'vaha'
p4
sS'word'
p5
S'usane'
p6
sS'morph_dic'
p7
(dp8
S'case'
p9
S'o'
p10
sS'parsarg'
p11
S'ne'
p12
sS'num'
p13
S's'
p14
sS'gen'
p15
S'm'
p16
sS'per'
p17
S'a'
p18
sS'cat'
p19
S'p'
p20
ssba(i__main__
Morph_info
p21
(dp22
g3
S'vaha'
p23
sg5
g6
sg7
(dp24
g9
g10
sg11
S'ne'
p25
sg13
g14
sg15
S'f'
p26
sg17
g18
sg19
g20
ssba.(lp0
(i__main__
Morph_info
p1
(dp2
S'root'
p3
S'kAma'
p4
sS'word'
p5
S'kAma'
p6
sS'morph_dic'
p7
(dp8
S'case'
p9
S'd'
p10
sS'num'
p11
S's'
p12
sS'gen'
p13
S'm'
p14
sS'cat'
p15
S'n'
p16
ssba(i__main__
Morph_info
p17
(dp18
g3
S'kAma'
p19
sg5
g6
sg7
(dp20
g9
g10
sg11
S'p'
p21
sg13
g14
sg15
g16
ssba(i__main__
Morph_info
p22
(dp23
g3
S'kAma'
p24
sg5
g6
sg7
(dp25
g9
S'o'
p26
sg11
g12
sg13
g14
sg15
g16
ssba.(lp0
(i__main__
Morph_info
p1
(dp2
S'root'
p3
S'kara'
p4
sS'word'
p5
S'kiyA'
p6
sS'morph_dic'
p7
(dp8
S'tam'
p9
S'yA'
p10
sS'num'
p11
S's'
p12
sS'gen'
p13
S'm'
p14
sS'per'
p15
S'u'
p16
sS'cat'
p17
S'v'
p18
ssba(i__main__
Morph_info
p19
(dp20
g3
S'kara'
p21
sg5
g6
sg7
(dp22
g9
S'yA'
p23
sg11
g12
sg13
g14
sg15
g14
sg17
g18
ssba(i__main__
Morph_info
p24
(dp25
g3
S'kara'
p26
sg5
g6
sg7
(dp27
g9
S'yA'
p28
sg11
g12
sg13
g14
sg15
S'm_h'
p29
sg17
g18
ssba(i__main__
Morph_info
p30
(dp31
g3
S'kara'
p32
sg5
g6
sg7
(dp33
g9
S'yA'
p34
sg11
g12
sg13
g14
sg15
S'a'
p35
sg17
g18
ssba.(lp0
(i__main__
Morph_info
p1
(dp2
S'root'
p3
S'hE'
p4
sS'word'
p5
S'hE'
p6
sS'morph_dic'
p7
(dp8
S'tam'
p9
S'hE'
p10
sS'num'
p11
S's'
p12
sS'gen'
p13
S'm'
p14
sS'per'
p15
g14
sS'cat'
p16
S'v'
p17
ssba(i__main__
Morph_info
p18
(dp19
g3
S'hE'
p20
sg5
g6
sg7
(dp21
g9
S'hE'
p22
sg11
g12
sg13
g14
sg15
S'a'
p23
sg16
g17
ssba(i__main__
Morph_info
p24
(dp25
g3
S'hE'
p26
sg5
g6
sg7
(dp27
g9
S'hE'
p28
sg11
g12
sg13
S'f'
p29
sg15
g14
sg16
g17
ssba(i__main__
Morph_info
p30
(dp31
g3
S'hE'
p32
sg5
g6
sg7
(dp33
g9
S'hE'
p34
sg11
g12
sg13
g29
sg15
g23
sg16
g17
ssba(i__main__
Morph_info
p35
(dp36
g3
S'ho'
p37
sg5
g6
sg7
(dp38
g9
S'hE'
p39
sg11
g12
sg13
g29
sg15
g23
sg16
g17
ssba.(lp0
(i__main__
Morph_info
p1
(dp2
S'root'
p3
S'vaha'
p4
sS'word'
p5
S'vaha'
p6
sS'morph_dic'
p7
(dp8
S'case'
p9
S'd'
p10
sS'parsarg'
p11
S'0'
p12
sS'num'
p13
S's'
p14
sS'gen'
p15
S'm'
p16
sS'per'
p17
S'a'
p18
sS'cat'
p19
S'p'
p20
ssba(i__main__
Morph_info
p21
(dp22
g3
S'vaha'
p23
sg5
g6
sg7
(dp24
g9
g10
sg11
g12
sg13
g14
sg15
S'f'
p25
sg17
g18
sg19
g20
ssba.(lp0
(i__main__
Morph_info
p1
(dp2
S'root'
p3
S'nayA'
p4
sS'word'
p5
S'nayI'
p6
sS'morph_dic'
p7
(dp8
S'case'
p9
S'd'
p10
sS'num'
p11
S's'
p12
sS'gen'
p13
S'f'
p14
sS'cat'
p15
S'adj'
p16
ssba(i__main__
Morph_info
p17
(dp18
g3
S'nayA'
p19
sg5
g6
sg7
(dp20
g9
g10
sg11
S'p'
p21
sg13
g14
sg15
S'adj'
p22
ssba(i__main__
Morph_info
p23
(dp24
g3
S'nayA'
p25
sg5
g6
sg7
(dp26
g9
S'o'
p27
sg11
g12
sg13
g14
sg15
S'adj'
p28
ssba(i__main__
Morph_info
p29
(dp30
g3
S'nayA'
p31
sg5
g6
sg7
(dp32
g9
g27
sg11
g21
sg13
g14
sg15
S'adj'
p33
ssba(i__main__
Morph_info
p34
(dp35
g3
S'nayA'
p36
sg5
g6
sg7
(dp37
g9
g10
sg11
g12
sg13
g14
sg15
S'n'
p38
ssba(i__main__
Morph_info
p39
(dp40
g3
S'nayA'
p41
sg5
g6
sg7
(dp42
g9
g10
sg11
g21
sg13
g14
sg15
g38
ssba(i__main__
Morph_info
p43
(dp44
g3
S'nayA'
p45
sg5
g6
sg7
(dp46
g9
g27
sg11
g12
sg13
g14
sg15
g38
ssba(i__main__
Morph_info
p47
(dp48
g3
S'nayI'
p49
sg5
g6
sg7
(dp50
g9
g10
sg11
g12
sg13
g14
sg15
g38
ssba(i__main__
Morph_info
p51
(dp52
g3
S'nayI'
p53
sg5
g6
sg7
(dp54
g9
g27
sg11
g12
sg13
g14
sg15
g38
ssba.(lp0
(i__main__
Morph_info
p1
(dp2
S'root'
p3
S'kiwAba'
p4
sS'word'
p5
S'kiwAba'
p6
sS'morph_dic'
p7
(dp8
S'case'
p9
S'd'
p10
sS'num'
p11
S's'
p12
sS'gen'
p13
S'f'
p14
sS'cat'
p15
S'n'
p16
ssba(i__main__
Morph_info
p17
(dp18
g3
S'kiwAba'
p19
sg5
g6
sg7
(dp20
g9
S'o'
p21
sg11
g12
sg13
g14
sg15
g16
ssba.(lp0
(i__main__
Morph_info
p1
(dp2
S'root'
p3
S'KarIxa'
p4
sS'word'
p5
S'KarIxA'
p6
sS'morph_dic'
p7
(dp8
S'tam'
p9
S'yA'
p10
sS'num'
p11
S's'
p12
sS'gen'
p13
S'm'
p14
sS'per'
p15
S'u'
p16
sS'cat'
p17
S'v'
p18
ssba(i__main__
Morph_info
p19
(dp20
g3
S'KarIxa'
p21
sg5
g6
sg7
(dp22
g9
S'yA'
p23
sg11
g12
sg13
g14
sg15
g14
sg17
g18
ssba(i__main__
Morph_info
p24
(dp25
g3
S'KarIxa'
p26
sg5
g6
sg7
(dp27
g9
S'yA'
p28
sg11
g12
sg13
g14
sg15
S'm_h'
p29
sg17
g18
ssba(i__main__
Morph_info
p30
(dp31
g3
S'KarIxa'
p32
sg5
g6
sg7
(dp33
g9
S'yA'
p34
sg11
g12
sg13
g14
sg15
S'a'
p35
sg17
g18
ssba.(lp0
(i__main__
Morph_info
p1
(dp2
S'root'
p3
S'hE'
p4
sS'word'
p5
S'hE'
p6
sS'morph_dic'
p7
(dp8
S'tam'
p9
S'hE'
p10
sS'num'
p11
S's'
p12
sS'gen'
p13
S'm'
p14
sS'per'
p15
g14
sS'cat'
p16
S'v'
p17
ssba(i__main__
Morph_info
p18
(dp19
g3
S'hE'
p20
sg5
g6
sg7
(dp21
g9
S'hE'
p22
sg11
g12
sg13
g14
sg15
S'a'
p23
sg16
g17
ssba(i__main__
Morph_info
p24
(dp25
g3
S'hE'
p26
sg5
g6
sg7
(dp27
g9
S'hE'
p28
sg11
g12
sg13
S'f'
p29
sg15
g14
sg16
g17
ssba(i__main__
Morph_info
p30
(dp31
g3
S'hE'
p32
sg5
g6
sg7
(dp33
g9
S'hE'
p34
sg11
g12
sg13
g29
sg15
g23
sg16
g17
ssba(i__main__
Morph_info
p35
(dp36
g3
S'ho'
p37
sg5
g6
sg7
(dp38
g9
S'hE'
p39
sg11
g12
sg13
g29
sg15
g23
sg16
g17
ssba.(lp0
(iCreate_morph_obj
Morph_info
p1
(dp2
S'root'
p3
S'hE'
p4
sS'word'
p5
S'hE'
p6
sS'morph_dic'
p7
(dp8
S'tam'
p9
S'hE'
p10
sS'num'
p11
S's'
p12
sS'gen'
p13
S'm'
p14
sS'per'
p15
g14
sS'cat'
p16
S'v'
p17
ssba(iCreate_morph_obj
Morph_info
p18
(dp19
g3
S'hE'
p20
sg5
g6
sg7
(dp21
g9
S'hE'
p22
sg11
g12
sg13
g14
sg15
S'a'
p23
sg16
g17
ssba(iCreate_morph_obj
Morph_info
p24
(dp25
g3
S'hE'
p26
sg5
g6
sg7
(dp27
g9
S'hE'
p28
sg11
g12
sg13
S'f'
p29
sg15
g14
sg16
g17
ssba(iCreate_morph_obj
Morph_info
p30
(dp31
g3
S'hE'
p32
sg5
g6
sg7
(dp33
g9
S'hE'
p34
sg11
g12
sg13
g29
sg15
g23
sg16
g17
ssba(iCreate_morph_obj
Morph_info
p35
(dp36
g3
S'ho'
p37
sg5
g6
sg7
(dp38
g9
S'hE'
p39
sg11
g12
sg13
g29
sg15
g23
sg16
g17
ssba.(lp0
(iCreate_morph_obj
Morph_info
p1
(dp2
S'root'
p3
S'hE'
p4
sS'word'
p5
S'hE'
p6
sS'morph_dic'
p7
(dp8
S'tam'
p9
S'hE'
p10
sS'num'
p11
S's'
p12
sS'gen'
p13
S'm'
p14
sS'per'
p15
g14
sS'cat'
p16
S'v'
p17
ssba(iCreate_morph_obj
Morph_info
p18
(dp19
g3
S'hE'
p20
sg5
g6
sg7
(dp21
g9
S'hE'
p22
sg11
g12
sg13
g14
sg15
S'a'
p23
sg16
g17
ssba(iCreate_morph_obj
Morph_info
p24
(dp25
g3
S'hE'
p26
sg5
g6
sg7
(dp27
g9
S'hE'
p28
sg11
g12
sg13
S'f'
p29
sg15
g14
sg16
g17
ssba(iCreate_morph_obj
Morph_info
p30
(dp31
g3
S'hE'
p32
sg5
g6
sg7
(dp33
g9
S'hE'
p34
sg11
g12
sg13
g29
sg15
g23
sg16
g17
ssba(iCreate_morph_obj
Morph_info
p35
(dp36
g3
S'ho'
p37
sg5
g6
sg7
(dp38
g9
S'hE'
p39
sg11
g12
sg13
g29
sg15
g23
sg16
g17
ssba.(lp0
(iCreate_morph_obj
Morph_info
p1
(dp2
S'root'
p3
S'hE'
p4
sS'word'
p5
S'hE'
p6
sS'morph_dic'
p7
(dp8
S'tam'
p9
S'hE'
p10
sS'num'
p11
S's'
p12
sS'gen'
p13
S'm'
p14
sS'per'
p15
g14
sS'cat'
p16
S'v'
p17
ssba(iCreate_morph_obj
Morph_info
p18
(dp19
g3
S'hE'
p20
sg5
g6
sg7
(dp21
g9
S'hE'
p22
sg11
g12
sg13
g14
sg15
S'a'
p23
sg16
g17
ssba(iCreate_morph_obj
Morph_info
p24
(dp25
g3
S'hE'
p26
sg5
g6
sg7
(dp27
g9
S'hE'
p28
sg11
g12
sg13
S'f'
p29
sg15
g14
sg16
g17
ssba(iCreate_morph_obj
Morph_info
p30
(dp31
g3
S'hE'
p32
sg5
g6
sg7
(dp33
g9
S'hE'
p34
sg11
g12
sg13
g29
sg15
g23
sg16
g17
ssba(iCreate_morph_obj
Morph_info
p35
(dp36
g3
S'ho'
p37
sg5
g6
sg7
(dp38
g9
S'hE'
p39
sg11
g12
sg13
g29
sg15
g23
sg16
g17
ssba.(lp0
(iCreate_morph_obj
Morph_info
p1
(dp2
S'root'
p3
S'hE'
p4
sS'word'
p5
S'hE'
p6
sS'morph_dic'
p7
(dp8
S'tam'
p9
S'hE'
p10
sS'num'
p11
S's'
p12
sS'gen'
p13
S'm'
p14
sS'per'
p15
g14
sS'cat'
p16
S'v'
p17
ssba(iCreate_morph_obj
Morph_info
p18
(dp19
g3
S'hE'
p20
sg5
g6
sg7
(dp21
g9
S'hE'
p22
sg11
g12
sg13
g14
sg15
S'a'
p23
sg16
g17
ssba(iCreate_morph_obj
Morph_info
p24
(dp25
g3
S'hE'
p26
sg5
g6
sg7
(dp27
g9
S'hE'
p28
sg11
g12
sg13
S'f'
p29
sg15
g14
sg16
g17
ssba(iCreate_morph_obj
Morph_info
p30
(dp31
g3
S'hE'
p32
sg5
g6
sg7
(dp33
g9
S'hE'
p34
sg11
g12
sg13
g29
sg15
g23
sg16
g17
ssba(iCreate_morph_obj
Morph_info
p35
(dp36
g3
S'ho'
p37
sg5
g6
sg7
(dp38
g9
S'hE'
p39
sg11
g12
sg13
g29
sg15
g23
sg16
g17
ssba.(lp0
(iCreate_morph_obj
Morph_info
p1
(dp2
S'root'
p3
S'hE'
p4
sS'word'
p5
S'hE'
p6
sS'morph_dic'
p7
(dp8
S'tam'
p9
S'hE'
p10
sS'num'
p11
S's'
p12
sS'gen'
p13
S'm'
p14
sS'per'
p15
g14
sS'cat'
p16
S'v'
p17
ssba(iCreate_morph_obj
Morph_info
p18
(dp19
g3
S'hE'
p20
sg5
g6
sg7
(dp21
g9
S'hE'
p22
sg11
g12
sg13
g14
sg15
S'a'
p23
sg16
g17
ssba(iCreate_morph_obj
Morph_info
p24
(dp25
g3
S'hE'
p26
sg5
g6
sg7
(dp27
g9
S'hE'
p28
sg11
g12
sg13
S'f'
p29
sg15
g14
sg16
g17
ssba(iCreate_morph_obj
Morph_info
p30
(dp31
g3
S'hE'
p32
sg5
g6
sg7
(dp33
g9
S'hE'
p34
sg11
g12
sg13
g29
sg15
g23
sg16
g17
ssba(iCreate_morph_obj
Morph_info
p35
(dp36
g3
S'ho'
p37
sg5
g6
sg7
(dp38
g9
S'hE'
p39
sg11
g12
sg13
g29
sg15
g23
sg16
g17
ssba.(lp0
(i__main__
Morph_info
p1
(dp2
S'root'
p3
S'vaha'
p4
sS'word'
p5
S'vaha'
p6
sS'morph_dic'
p7
(dp8
S'case'
p9
S'd'
p10
sS'parsarg'
p11
S'0'
p12
sS'num'
p13
S's'
p14
sS'gen'
p15
S'm'
p16
sS'per'
p17
S'a'
p18
sS'cat'
p19
S'p'
p20
ssba(i__main__
Morph_info
p21
(dp22
g3
S'vaha'
p23
sg5
g6
sg7
(dp24
g9
g10
sg11
g12
sg13
g14
sg15
S'f'
p25
sg17
g18
sg19
g20
ssba.(lp0
(i__main__
Morph_info
p1
(dp2
S'root'
p3
S'nayA'
p4
sS'word'
p5
S'nayI'
p6
sS'morph_dic'
p7
(dp8
S'case'
p9
S'd'
p10
sS'num'
p11
S's'
p12
sS'gen'
p13
S'f'
p14
sS'cat'
p15
S'adj'
p16
ssba(i__main__
Morph_info
p17
(dp18
g3
S'nayA'
p19
sg5
g6
sg7
(dp20
g9
g10
sg11
S'p'
p21
sg13
g14
sg15
S'adj'
p22
ssba(i__main__
Morph_info
p23
(dp24
g3
S'nayA'
p25
sg5
g6
sg7
(dp26
g9
S'o'
p27
sg11
g12
sg13
g14
sg15
S'adj'
p28
ssba(i__main__
Morph_info
p29
(dp30
g3
S'nayA'
p31
sg5
g6
sg7
(dp32
g9
g27
sg11
g21
sg13
g14
sg15
S'adj'
p33
ssba(i__main__
Morph_info
p34
(dp35
g3
S'nayA'
p36
sg5
g6
sg7
(dp37
g9
g10
sg11
g12
sg13
g14
sg15
S'n'
p38
ssba(i__main__
Morph_info
p39
(dp40
g3
S'nayA'
p41
sg5
g6
sg7
(dp42
g9
g10
sg11
g21
sg13
g14
sg15
g38
ssba(i__main__
Morph_info
p43
(dp44
g3
S'nayA'
p45
sg5
g6
sg7
(dp46
g9
g27
sg11
g12
sg13
g14
sg15
g38
ssba(i__main__
Morph_info
p47
(dp48
g3
S'nayI'
p49
sg5
g6
sg7
(dp50
g9
g10
sg11
g12
sg13
g14
sg15
g38
ssba(i__main__
Morph_info
p51
(dp52
g3
S'nayI'
p53
sg5
g6
sg7
(dp54
g9
g27
sg11
g12
sg13
g14
sg15
g38
ssba.(lp0
(i__main__
Morph_info
p1
(dp2
S'root'
p3
S'kiwAba'
p4
sS'word'
p5
S'kiwAba'
p6
sS'morph_dic'
p7
(dp8
S'case'
p9
S'd'
p10
sS'num'
p11
S's'
p12
sS'gen'
p13
S'f'
p14
sS'cat'
p15
S'n'
p16
ssba(i__main__
Morph_info
p17
(dp18
g3
S'kiwAba'
p19
sg5
g6
sg7
(dp20
g9
S'o'
p21
sg11
g12
sg13
g14
sg15
g16
ssba.(lp0
(i__main__
Morph_info
p1
(dp2
S'root'
p3
S'KarIxa'
p4
sS'word'
p5
S'KarIxA'
p6
sS'morph_dic'
p7
(dp8
S'tam'
p9
S'yA'
p10
sS'num'
p11
S's'
p12
sS'gen'
p13
S'm'
p14
sS'per'
p15
S'u'
p16
sS'cat'
p17
S'v'
p18
ssba(i__main__
Morph_info
p19
(dp20
g3
S'KarIxa'
p21
sg5
g6
sg7
(dp22
g9
S'yA'
p23
sg11
g12
sg13
g14
sg15
g14
sg17
g18
ssba(i__main__
Morph_info
p24
(dp25
g3
S'KarIxa'
p26
sg5
g6
sg7
(dp27
g9
S'yA'
p28
sg11
g12
sg13
g14
sg15
S'm_h'
p29
sg17
g18
ssba(i__main__
Morph_info
p30
(dp31
g3
S'KarIxa'
p32
sg5
g6
sg7
(dp33
g9
S'yA'
p34
sg11
g12
sg13
g14
sg15
S'a'
p35
sg17
g18
ssba.(lp0
(i__main__
Morph_info
p1
(dp2
S'root'
p3
S'hE'
p4
sS'word'
p5
S'hE'
p6
sS'morph_dic'
p7
(dp8
S'tam'
p9
S'hE'
p10
sS'num'
p11
S's'
p12
sS'gen'
p13
S'm'
p14
sS'per'
p15
g14
sS'cat'
p16
S'v'
p17
ssba(i__main__
Morph_info
p18
(dp19
g3
S'hE'
p20
sg5
g6
sg7
(dp21
g9
S'hE'
p22
sg11
g12
sg13
g14
sg15
S'a'
p23
sg16
g17
ssba(i__main__
Morph_info
p24
(dp25
g3
S'hE'
p26
sg5
g6
sg7
(dp27
g9
S'hE'
p28
sg11
g12
sg13
S'f'
p29
sg15
g14
sg16
g17
ssba(i__main__
Morph_info
p30
(dp31
g3
S'hE'
p32
sg5
g6
sg7
(dp33
g9
S'hE'
p34
sg11
g12
sg13
g29
sg15
g23
sg16
g17
ssba(i__main__
Morph_info
p35
(dp36
g3
S'ho'
p37
sg5
g6
sg7
(dp38
g9
S'hE'
p39
sg11
g12
sg13
g29
sg15
g23
sg16
g17
ssba.(lp0
(iCreate_morph_obj
Morph_info
p1
(dp2
S'root'
p3
S'hE'
p4
sS'word'
p5
S'hE'
p6
sS'morph_dic'
p7
(dp8
S'tam'
p9
S'hE'
p10
sS'num'
p11
S's'
p12
sS'gen'
p13
S'm'
p14
sS'per'
p15
g14
sS'cat'
p16
S'v'
p17
ssba(iCreate_morph_obj
Morph_info
p18
(dp19
g3
S'hE'
p20
sg5
g6
sg7
(dp21
g9
S'hE'
p22
sg11
g12
sg13
g14
sg15
S'a'
p23
sg16
g17
ssba(iCreate_morph_obj
Morph_info
p24
(dp25
g3
S'hE'
p26
sg5
g6
sg7
(dp27
g9
S'hE'
p28
sg11
g12
sg13
S'f'
p29
sg15
g14
sg16
g17
ssba(iCreate_morph_obj
Morph_info
p30
(dp31
g3
S'hE'
p32
sg5
g6
sg7
(dp33
g9
S'hE'
p34
sg11
g12
sg13
g29
sg15
g23
sg16
g17
ssba(iCreate_morph_obj
Morph_info
p35
(dp36
g3
S'ho'
p37
sg5
g6
sg7
(dp38
g9
S'hE'
p39
sg11
g12
sg13
g29
sg15
g23
sg16
g17
ssba.(lp0
(iCreate_morph_obj
Morph_info
p1
(dp2
S'root'
p3
S'hE'
p4
sS'word'
p5
S'hE'
p6
sS'morph_dic'
p7
(dp8
S'tam'
p9
S'hE'
p10
sS'num'
p11
S's'
p12
sS'gen'
p13
S'm'
p14
sS'per'
p15
g14
sS'cat'
p16
S'v'
p17
ssba(iCreate_morph_obj
Morph_info
p18
(dp19
g3
S'hE'
p20
sg5
g6
sg7
(dp21
g9
S'hE'
p22
sg11
g12
sg13
g14
sg15
S'a'
p23
sg16
g17
ssba(iCreate_morph_obj
Morph_info
p24
(dp25
g3
S'hE'
p26
sg5
g6
sg7
(dp27
g9
S'hE'
p28
sg11
g12
sg13
S'f'
p29
sg15
g14
sg16
g17
ssba(iCreate_morph_obj
Morph_info
p30
(dp31
g3
S'hE'
p32
sg5
g6
sg7
(dp33
g9
S'hE'
p34
sg11
g12
sg13
g29
sg15
g23
sg16
g17
ssba(iCreate_morph_obj
Morph_info
p35
(dp36
g3
S'ho'
p37
sg5
g6
sg7
(dp38
g9
S'hE'
p39
sg11
g12
sg13
g29
sg15
g23
sg16
g17
ssba.(lp0
(iCreate_morph_obj
Morph_info
p1
(dp2
S'root'
p3
S'hE'
p4
sS'word'
p5
S'hE'
p6
sS'morph_dic'
p7
(dp8
S'tam'
p9
S'hE'
p10
sS'num'
p11
S's'
p12
sS'gen'
p13
S'm'
p14
sS'per'
p15
g14
sS'cat'
p16
S'v'
p17
ssba(iCreate_morph_obj
Morph_info
p18
(dp19
g3
S'hE'
p20
sg5
g6
sg7
(dp21
g9
S'hE'
p22
sg11
g12
sg13
g14
sg15
S'a'
p23
sg16
g17
ssba(iCreate_morph_obj
Morph_info
p24
(dp25
g3
S'hE'
p26
sg5
g6
sg7
(dp27
g9
S'hE'
p28
sg11
g12
sg13
S'f'
p29
sg15
g14
sg16
g17
ssba(iCreate_morph_obj
Morph_info
p30
(dp31
g3
S'hE'
p32
sg5
g6
sg7
(dp33
g9
S'hE'
p34
sg11
g12
sg13
g29
sg15
g23
sg16
g17
ssba(iCreate_morph_obj
Morph_info
p35
(dp36
g3
S'ho'
p37
sg5
g6
sg7
(dp38
g9
S'hE'
p39
sg11
g12
sg13
g29
sg15
g23
sg16
g17
ssba.(lp0
(i__main__
Morph_info
p1
(dp2
S'root'
p3
S'vaha'
p4
sS'word'
p5
S'vaha'
p6
sS'morph_dic'
p7
(dp8
S'case'
p9
S'd'
p10
sS'parsarg'
p11
S'0'
p12
sS'num'
p13
S's'
p14
sS'gen'
p15
S'm'
p16
sS'per'
p17
S'a'
p18
sS'cat'
p19
S'p'
p20
ssba(i__main__
Morph_info
p21
(dp22
g3
S'vaha'
p23
sg5
g6
sg7
(dp24
g9
g10
sg11
g12
sg13
g14
sg15
S'f'
p25
sg17
g18
sg19
g20
ssba.(lp0
(i__main__
Morph_info
p1
(dp2
S'root'
p3
S'nayA'
p4
sS'word'
p5
S'nayI'
p6
sS'morph_dic'
p7
(dp8
S'case'
p9
S'd'
p10
sS'num'
p11
S's'
p12
sS'gen'
p13
S'f'
p14
sS'cat'
p15
S'adj'
p16
ssba(i__main__
Morph_info
p17
(dp18
g3
S'nayA'
p19
sg5
g6
sg7
(dp20
g9
g10
sg11
S'p'
p21
sg13
g14
sg15
S'adj'
p22
ssba(i__main__
Morph_info
p23
(dp24
g3
S'nayA'
p25
sg5
g6
sg7
(dp26
g9
S'o'
p27
sg11
g12
sg13
g14
sg15
S'adj'
p28
ssba(i__main__
Morph_info
p29
(dp30
g3
S'nayA'
p31
sg5
g6
sg7
(dp32
g9
g27
sg11
g21
sg13
g14
sg15
S'adj'
p33
ssba(i__main__
Morph_info
p34
(dp35
g3
S'nayA'
p36
sg5
g6
sg7
(dp37
g9
g10
sg11
g12
sg13
g14
sg15
S'n'
p38
ssba(i__main__
Morph_info
p39
(dp40
g3
S'nayA'
p41
sg5
g6
sg7
(dp42
g9
g10
sg11
g21
sg13
g14
sg15
g38
ssba(i__main__
Morph_info
p43
(dp44
g3
S'nayA'
p45
sg5
g6
sg7
(dp46
g9
g27
sg11
g12
sg13
g14
sg15
g38
ssba(i__main__
Morph_info
p47
(dp48
g3
S'nayI'
p49
sg5
g6
sg7
(dp50
g9
g10
sg11
g12
sg13
g14
sg15
g38
ssba(i__main__
Morph_info
p51
(dp52
g3
S'nayI'
p53
sg5
g6
sg7
(dp54
g9
g27
sg11
g12
sg13
g14
sg15
g38
ssba.(lp0
(i__main__
Morph_info
p1
(dp2
S'root'
p3
S'kiwAba'
p4
sS'word'
p5
S'kiwAba'
p6
sS'morph_dic'
p7
(dp8
S'case'
p9
S'd'
p10
sS'num'
p11
S's'
p12
sS'gen'
p13
S'f'
p14
sS'cat'
p15
S'n'
p16
ssba(i__main__
Morph_info
p17
(dp18
g3
S'kiwAba'
p19
sg5
g6
sg7
(dp20
g9
S'o'
p21
sg11
g12
sg13
g14
sg15
g16
ssba.(lp0
(i__main__
Morph_info
p1
(dp2
S'root'
p3
S'KarIxa'
p4
sS'word'
p5
S'KarIxA'
p6
sS'morph_dic'
p7
(dp8
S'tam'
p9
S'yA'
p10
sS'num'
p11
S's'
p12
sS'gen'
p13
S'm'
p14
sS'per'
p15
S'u'
p16
sS'cat'
p17
S'v'
p18
ssba(i__main__
Morph_info
p19
(dp20
g3
S'KarIxa'
p21
sg5
g6
sg7
(dp22
g9
S'yA'
p23
sg11
g12
sg13
g14
sg15
g14
sg17
g18
ssba(i__main__
Morph_info
p24
(dp25
g3
S'KarIxa'
p26
sg5
g6
sg7
(dp27
g9
S'yA'
p28
sg11
g12
sg13
g14
sg15
S'm_h'
p29
sg17
g18
ssba(i__main__
Morph_info
p30
(dp31
g3
S'KarIxa'
p32
sg5
g6
sg7
(dp33
g9
S'yA'
p34
sg11
g12
sg13
g14
sg15
S'a'
p35
sg17
g18
ssba.(lp0
(i__main__
Morph_info
p1
(dp2
S'root'
p3
S'hE'
p4
sS'word'
p5
S'hE'
p6
sS'morph_dic'
p7
(dp8
S'tam'
p9
S'hE'
p10
sS'num'
p11
S's'
p12
sS'gen'
p13
S'm'
p14
sS'per'
p15
g14
sS'cat'
p16
S'v'
p17
ssba(i__main__
Morph_info
p18
(dp19
g3
S'hE'
p20
sg5
g6
sg7
(dp21
g9
S'hE'
p22
sg11
g12
sg13
g14
sg15
S'a'
p23
sg16
g17
ssba(i__main__
Morph_info
p24
(dp25
g3
S'hE'
p26
sg5
g6
sg7
(dp27
g9
S'hE'
p28
sg11
g12
sg13
S'f'
p29
sg15
g14
sg16
g17
ssba(i__main__
Morph_info
p30
(dp31
g3
S'hE'
p32
sg5
g6
sg7
(dp33
g9
S'hE'
p34
sg11
g12
sg13
g29
sg15
g23
sg16
g17
ssba(i__main__
Morph_info
p35
(dp36
g3
S'ho'
p37
sg5
g6
sg7
(dp38
g9
S'hE'
p39
sg11
g12
sg13
g29
sg15
g23
sg16
g17
ssba.(lp0
(iCreate_morph_obj
Morph_info
p1
(dp2
S'root'
p3
S'hE'
p4
sS'word'
p5
S'hE'
p6
sS'morph_dic'
p7
(dp8
S'tam'
p9
S'hE'
p10
sS'num'
p11
S's'
p12
sS'gen'
p13
S'm'
p14
sS'per'
p15
g14
sS'cat'
p16
S'v'
p17
ssba(iCreate_morph_obj
Morph_info
p18
(dp19
g3
S'hE'
p20
sg5
g6
sg7
(dp21
g9
S'hE'
p22
sg11
g12
sg13
g14
sg15
S'a'
p23
sg16
g17
ssba(iCreate_morph_obj
Morph_info
p24
(dp25
g3
S'hE'
p26
sg5
g6
sg7
(dp27
g9
S'hE'
p28
sg11
g12
sg13
S'f'
p29
sg15
g14
sg16
g17
ssba(iCreate_morph_obj
Morph_info
p30
(dp31
g3
S'hE'
p32
sg5
g6
sg7
(dp33
g9
S'hE'
p34
sg11
g12
sg13
g29
sg15
g23
sg16
g17
ssba(iCreate_morph_obj
Morph_info
p35
(dp36
g3
S'ho'
p37
sg5
g6
sg7
(dp38
g9
S'hE'
p39
sg11
g12
sg13
g29
sg15
g23
sg16
g17
ssba.(lp0
(iCreate_morph_obj
Morph_info
p1
(dp2
S'root'
p3
S'hE'
p4
sS'word'
p5
S'hE'
p6
sS'morph_dic'
p7
(dp8
S'tam'
p9
S'hE'
p10
sS'num'
p11
S's'
p12
sS'gen'
p13
S'm'
p14
sS'per'
p15
g14
sS'cat'
p16
S'v'
p17
ssba(iCreate_morph_obj
Morph_info
p18
(dp19
g3
S'hE'
p20
sg5
g6
sg7
(dp21
g9
S'hE'
p22
sg11
g12
sg13
g14
sg15
S'a'
p23
sg16
g17
ssba(iCreate_morph_obj
Morph_info
p24
(dp25
g3
S'hE'
p26
sg5
g6
sg7
(dp27
g9
S'hE'
p28
sg11
g12
sg13
S'f'
p29
sg15
g14
sg16
g17
ssba(iCreate_morph_obj
Morph_info
p30
(dp31
g3
S'hE'
p32
sg5
g6
sg7
(dp33
g9
S'hE'
p34
sg11
g12
sg13
g29
sg15
g23
sg16
g17
ssba(iCreate_morph_obj
Morph_info
p35
(dp36
g3
S'ho'
p37
sg5
g6
sg7
(dp38
g9
S'hE'
p39
sg11
g12
sg13
g29
sg15
g23
sg16
g17
ssba.(lp0
(iCreate_morph_obj
Morph_info
p1
(dp2
S'root'
p3
S'hE'
p4
sS'word'
p5
S'hE'
p6
sS'morph_dic'
p7
(dp8
S'tam'
p9
S'hE'
p10
sS'num'
p11
S's'
p12
sS'gen'
p13
S'm'
p14
sS'per'
p15
g14
sS'cat'
p16
S'v'
p17
ssba(iCreate_morph_obj
Morph_info
p18
(dp19
g3
S'hE'
p20
sg5
g6
sg7
(dp21
g9
S'hE'
p22
sg11
g12
sg13
g14
sg15
S'a'
p23
sg16
g17
ssba(iCreate_morph_obj
Morph_info
p24
(dp25
g3
S'hE'
p26
sg5
g6
sg7
(dp27
g9
S'hE'
p28
sg11
g12
sg13
S'f'
p29
sg15
g14
sg16
g17
ssba(iCreate_morph_obj
Morph_info
p30
(dp31
g3
S'hE'
p32
sg5
g6
sg7
(dp33
g9
S'hE'
p34
sg11
g12
sg13
g29
sg15
g23
sg16
g17
ssba(iCreate_morph_obj
Morph_info
p35
(dp36
g3
S'ho'
p37
sg5
g6
sg7
(dp38
g9
S'hE'
p39
sg11
g12
sg13
g29
sg15
g23
sg16
g17
ssba.