(lp0
(i__main__
Morph_info
p1
(dp2
S'root'
p3
S'ladakA'
p4
sS'word'
p5
S'ladake'
p6
sS'morph_dic'
p7
(dp8
S'case'
p9
S'd'
p10
sS'num'
p11
S'p'
p12
sS'gen'
p13
S'm'
p14
sS'cat'
p15
S'adj'
p16
ssba(i__main__
Morph_info
p17
(dp18
g3
S'ladakA'
p19
sg5
g6
sg7
(dp20
g9
S'o'
p21
sg11
S's'
p22
sg13
g14
sg15
S'adj'
p23
ssba(i__main__
Morph_info
p24
(dp25
g3
S'ladakA'
p26
sg5
g6
sg7
(dp27
g9
g21
sg11
g12
sg13
g14
sg15
S'adj'
p28
ssba(i__main__
Morph_info
p29
(dp30
g3
S'ladakA'
p31
sg5
g6
sg7
(dp32
g9
g10
sg11
g12
sg13
g14
sg15
S'n'
p33
ssba(i__main__
Morph_info
p34
(dp35
g3
S'ladakA'
p36
sg5
g6
sg7
(dp37
g9
g21
sg11
g22
sg13
g14
sg15
g33
ssba.(lp0
(i__main__
Morph_info
p1
(dp2
S'root'
p3
S'ne'
p4
sS'word'
p5
S'ne'
p6
sS'morph_dic'
p7
(dp8
S'cat'
p9
S'prsg'
p10
ssba.(lp0
(i__main__
Morph_info
p1
(dp2
S'root'
p3
S'xe'
p4
sS'word'
p5
S'xo'
p6
sS'morph_dic'
p7
(dp8
S'tam'
p9
S'imper'
p10
sS'num'
p11
S's'
p12
sS'gen'
p13
S'm'
p14
sS'per'
p15
S'm_h1'
p16
sS'cat'
p17
S'v'
p18
ssba(i__main__
Morph_info
p19
(dp20
g3
S'xe'
p21
sg5
g6
sg7
(dp22
g9
S'subj'
p23
sg11
S'p'
p24
sg13
g14
sg15
g14
sg17
g18
ssba(i__main__
Morph_info
p25
(dp26
g3
S'xe'
p27
sg5
g6
sg7
(dp28
g9
S'imper'
p29
sg11
g24
sg13
g14
sg15
S'm_h1'
p30
sg17
g18
ssba(i__main__
Morph_info
p31
(dp32
g3
S'xe'
p33
sg5
g6
sg7
(dp34
g9
S'imper'
p35
sg11
g12
sg13
S'f'
p36
sg15
S'm_h1'
p37
sg17
g18
ssba(i__main__
Morph_info
p38
(dp39
g3
S'xe'
p40
sg5
g6
sg7
(dp41
g9
S'subj'
p42
sg11
g24
sg13
g36
sg15
g14
sg17
g18
ssba(i__main__
Morph_info
p43
(dp44
g3
S'xe'
p45
sg5
g6
sg7
(dp46
g9
S'imper'
p47
sg11
g24
sg13
g36
sg15
S'm_h1'
p48
sg17
g18
ssba.(lp0
(i__main__
Morph_info
p1
(dp2
S'root'
p3
S'nayA'
p4
sS'word'
p5
S'nayI'
p6
sS'morph_dic'
p7
(dp8
S'case'
p9
S'd'
p10
sS'num'
p11
S's'
p12
sS'gen'
p13
S'f'
p14
sS'cat'
p15
S'adj'
p16
ssba(i__main__
Morph_info
p17
(dp18
g3
S'nayA'
p19
sg5
g6
sg7
(dp20
g9
g10
sg11
S'p'
p21
sg13
g14
sg15
S'adj'
p22
ssba(i__main__
Morph_info
p23
(dp24
g3
S'nayA'
p25
sg5
g6
sg7
(dp26
g9
S'o'
p27
sg11
g12
sg13
g14
sg15
S'adj'
p28
ssba(i__main__
Morph_info
p29
(dp30
g3
S'nayA'
p31
sg5
g6
sg7
(dp32
g9
g27
sg11
g21
sg13
g14
sg15
S'adj'
p33
ssba(i__main__
Morph_info
p34
(dp35
g3
S'nayA'
p36
sg5
g6
sg7
(dp37
g9
g10
sg11
g12
sg13
g14
sg15
S'n'
p38
ssba(i__main__
Morph_info
p39
(dp40
g3
S'nayA'
p41
sg5
g6
sg7
(dp42
g9
g10
sg11
g21
sg13
g14
sg15
g38
ssba(i__main__
Morph_info
p43
(dp44
g3
S'nayA'
p45
sg5
g6
sg7
(dp46
g9
g27
sg11
g12
sg13
g14
sg15
g38
ssba(i__main__
Morph_info
p47
(dp48
g3
S'nayI'
p49
sg5
g6
sg7
(dp50
g9
g10
sg11
g12
sg13
g14
sg15
g38
ssba(i__main__
Morph_info
p51
(dp52
g3
S'nayI'
p53
sg5
g6
sg7
(dp54
g9
g27
sg11
g12
sg13
g14
sg15
g38
ssba.(lp0
(i__main__
Morph_info
p1
(dp2
S'root'
p3
S'kiwAba'
p4
sS'word'
p5
S'kiwAbeM'
p6
sS'morph_dic'
p7
(dp8
S'case'
p9
S'd'
p10
sS'num'
p11
S'p'
p12
sS'gen'
p13
S'f'
p14
sS'cat'
p15
S'n'
p16
ssba.(lp0
(i__main__
Morph_info
p1
(dp2
S'root'
p3
S'KarIxa'
p4
sS'word'
p5
S'KarIxI'
p6
sS'morph_dic'
p7
(dp8
S'tam'
p9
S'yA'
p10
sS'num'
p11
S's'
p12
sS'gen'
p13
S'f'
p14
sS'per'
p15
S'u'
p16
sS'cat'
p17
S'v'
p18
ssba(i__main__
Morph_info
p19
(dp20
g3
S'KarIxa'
p21
sg5
g6
sg7
(dp22
g9
S'yA'
p23
sg11
g12
sg13
g14
sg15
S'm'
p24
sg17
g18
ssba(i__main__
Morph_info
p25
(dp26
g3
S'KarIxa'
p27
sg5
g6
sg7
(dp28
g9
S'yA'
p29
sg11
g12
sg13
g14
sg15
S'm_h'
p30
sg17
g18
ssba(i__main__
Morph_info
p31
(dp32
g3
S'KarIxa'
p33
sg5
g6
sg7
(dp34
g9
S'yA'
p35
sg11
g12
sg13
g14
sg15
S'a'
p36
sg17
g18
ssba.(lp0
(i__main__
Morph_info
p1
(dp2
S'root'
p3
S'WA'
p4
sS'word'
p5
S'WI'
p6
sS'morph_dic'
p7
(dp8
S'tam'
p9
S'WA'
p10
sS'num'
p11
S's'
p12
sS'gen'
p13
S'f'
p14
sS'per'
p15
S'u'
p16
sS'cat'
p17
S'v'
p18
ssba(i__main__
Morph_info
p19
(dp20
g3
S'WA'
p21
sg5
g6
sg7
(dp22
g9
S'WA'
p23
sg11
g12
sg13
g14
sg15
S'm'
p24
sg17
g18
ssba(i__main__
Morph_info
p25
(dp26
g3
S'WA'
p27
sg5
g6
sg7
(dp28
g9
S'WA'
p29
sg11
g12
sg13
g14
sg15
S'm_h'
p30
sg17
g18
ssba(i__main__
Morph_info
p31
(dp32
g3
S'WA'
p33
sg5
g6
sg7
(dp34
g9
S'WA'
p35
sg11
g12
sg13
g14
sg15
S'a'
p36
sg17
g18
ssba.(lp0
(i__main__
Morph_info
p1
(dp2
S'root'
p3
S'ladakA'
p4
sS'word'
p5
S'ladake'
p6
sS'morph_dic'
p7
(dp8
S'case'
p9
S'd'
p10
sS'num'
p11
S'p'
p12
sS'gen'
p13
S'm'
p14
sS'cat'
p15
S'adj'
p16
ssba(i__main__
Morph_info
p17
(dp18
g3
S'ladakA'
p19
sg5
g6
sg7
(dp20
g9
S'o'
p21
sg11
S's'
p22
sg13
g14
sg15
S'adj'
p23
ssba(i__main__
Morph_info
p24
(dp25
g3
S'ladakA'
p26
sg5
g6
sg7
(dp27
g9
g21
sg11
g12
sg13
g14
sg15
S'adj'
p28
ssba(i__main__
Morph_info
p29
(dp30
g3
S'ladakA'
p31
sg5
g6
sg7
(dp32
g9
g10
sg11
g12
sg13
g14
sg15
S'n'
p33
ssba(i__main__
Morph_info
p34
(dp35
g3
S'ladakA'
p36
sg5
g6
sg7
(dp37
g9
g21
sg11
g22
sg13
g14
sg15
g33
ssba.(lp0
(i__main__
Morph_info
p1
(dp2
S'root'
p3
S'ne'
p4
sS'word'
p5
S'ne'
p6
sS'morph_dic'
p7
(dp8
S'cat'
p9
S'prsg'
p10
ssba.(lp0
(i__main__
Morph_info
p1
(dp2
S'root'
p3
S'xe'
p4
sS'word'
p5
S'xo'
p6
sS'morph_dic'
p7
(dp8
S'tam'
p9
S'imper'
p10
sS'num'
p11
S's'
p12
sS'gen'
p13
S'm'
p14
sS'per'
p15
S'm_h1'
p16
sS'cat'
p17
S'v'
p18
ssba(i__main__
Morph_info
p19
(dp20
g3
S'xe'
p21
sg5
g6
sg7
(dp22
g9
S'subj'
p23
sg11
S'p'
p24
sg13
g14
sg15
g14
sg17
g18
ssba(i__main__
Morph_info
p25
(dp26
g3
S'xe'
p27
sg5
g6
sg7
(dp28
g9
S'imper'
p29
sg11
g24
sg13
g14
sg15
S'm_h1'
p30
sg17
g18
ssba(i__main__
Morph_info
p31
(dp32
g3
S'xe'
p33
sg5
g6
sg7
(dp34
g9
S'imper'
p35
sg11
g12
sg13
S'f'
p36
sg15
S'm_h1'
p37
sg17
g18
ssba(i__main__
Morph_info
p38
(dp39
g3
S'xe'
p40
sg5
g6
sg7
(dp41
g9
S'subj'
p42
sg11
g24
sg13
g36
sg15
g14
sg17
g18
ssba(i__main__
Morph_info
p43
(dp44
g3
S'xe'
p45
sg5
g6
sg7
(dp46
g9
S'imper'
p47
sg11
g24
sg13
g36
sg15
S'm_h1'
p48
sg17
g18
ssba.(lp0
(i__main__
Morph_info
p1
(dp2
S'root'
p3
S'nayA'
p4
sS'word'
p5
S'nayI'
p6
sS'morph_dic'
p7
(dp8
S'case'
p9
S'd'
p10
sS'num'
p11
S's'
p12
sS'gen'
p13
S'f'
p14
sS'cat'
p15
S'adj'
p16
ssba(i__main__
Morph_info
p17
(dp18
g3
S'nayA'
p19
sg5
g6
sg7
(dp20
g9
g10
sg11
S'p'
p21
sg13
g14
sg15
S'adj'
p22
ssba(i__main__
Morph_info
p23
(dp24
g3
S'nayA'
p25
sg5
g6
sg7
(dp26
g9
S'o'
p27
sg11
g12
sg13
g14
sg15
S'adj'
p28
ssba(i__main__
Morph_info
p29
(dp30
g3
S'nayA'
p31
sg5
g6
sg7
(dp32
g9
g27
sg11
g21
sg13
g14
sg15
S'adj'
p33
ssba(i__main__
Morph_info
p34
(dp35
g3
S'nayA'
p36
sg5
g6
sg7
(dp37
g9
g10
sg11
g12
sg13
g14
sg15
S'n'
p38
ssba(i__main__
Morph_info
p39
(dp40
g3
S'nayA'
p41
sg5
g6
sg7
(dp42
g9
g10
sg11
g21
sg13
g14
sg15
g38
ssba(i__main__
Morph_info
p43
(dp44
g3
S'nayA'
p45
sg5
g6
sg7
(dp46
g9
g27
sg11
g12
sg13
g14
sg15
g38
ssba(i__main__
Morph_info
p47
(dp48
g3
S'nayI'
p49
sg5
g6
sg7
(dp50
g9
g10
sg11
g12
sg13
g14
sg15
g38
ssba(i__main__
Morph_info
p51
(dp52
g3
S'nayI'
p53
sg5
g6
sg7
(dp54
g9
g27
sg11
g12
sg13
g14
sg15
g38
ssba.(lp0
(i__main__
Morph_info
p1
(dp2
S'root'
p3
S'kiwAba'
p4
sS'word'
p5
S'kiwAbeM'
p6
sS'morph_dic'
p7
(dp8
S'case'
p9
S'd'
p10
sS'num'
p11
S'p'
p12
sS'gen'
p13
S'f'
p14
sS'cat'
p15
S'n'
p16
ssba.(lp0
(i__main__
Morph_info
p1
(dp2
S'root'
p3
S'KarIxa'
p4
sS'word'
p5
S'KarIxI'
p6
sS'morph_dic'
p7
(dp8
S'tam'
p9
S'yA'
p10
sS'num'
p11
S's'
p12
sS'gen'
p13
S'f'
p14
sS'per'
p15
S'u'
p16
sS'cat'
p17
S'v'
p18
ssba(i__main__
Morph_info
p19
(dp20
g3
S'KarIxa'
p21
sg5
g6
sg7
(dp22
g9
S'yA'
p23
sg11
g12
sg13
g14
sg15
S'm'
p24
sg17
g18
ssba(i__main__
Morph_info
p25
(dp26
g3
S'KarIxa'
p27
sg5
g6
sg7
(dp28
g9
S'yA'
p29
sg11
g12
sg13
g14
sg15
S'm_h'
p30
sg17
g18
ssba(i__main__
Morph_info
p31
(dp32
g3
S'KarIxa'
p33
sg5
g6
sg7
(dp34
g9
S'yA'
p35
sg11
g12
sg13
g14
sg15
S'a'
p36
sg17
g18
ssba.(lp0
(i__main__
Morph_info
p1
(dp2
S'root'
p3
S'WA'
p4
sS'word'
p5
S'WI'
p6
sS'morph_dic'
p7
(dp8
S'tam'
p9
S'WA'
p10
sS'num'
p11
S's'
p12
sS'gen'
p13
S'f'
p14
sS'per'
p15
S'u'
p16
sS'cat'
p17
S'v'
p18
ssba(i__main__
Morph_info
p19
(dp20
g3
S'WA'
p21
sg5
g6
sg7
(dp22
g9
S'WA'
p23
sg11
g12
sg13
g14
sg15
S'm'
p24
sg17
g18
ssba(i__main__
Morph_info
p25
(dp26
g3
S'WA'
p27
sg5
g6
sg7
(dp28
g9
S'WA'
p29
sg11
g12
sg13
g14
sg15
S'm_h'
p30
sg17
g18
ssba(i__main__
Morph_info
p31
(dp32
g3
S'WA'
p33
sg5
g6
sg7
(dp34
g9
S'WA'
p35
sg11
g12
sg13
g14
sg15
S'a'
p36
sg17
g18
ssba.(lp0
(i__main__
Morph_info
p1
(dp2
S'root'
p3
S'ladakA'
p4
sS'word'
p5
S'ladake'
p6
sS'morph_dic'
p7
(dp8
S'case'
p9
S'd'
p10
sS'num'
p11
S'p'
p12
sS'gen'
p13
S'm'
p14
sS'cat'
p15
S'adj'
p16
ssba(i__main__
Morph_info
p17
(dp18
g3
S'ladakA'
p19
sg5
g6
sg7
(dp20
g9
S'o'
p21
sg11
S's'
p22
sg13
g14
sg15
S'adj'
p23
ssba(i__main__
Morph_info
p24
(dp25
g3
S'ladakA'
p26
sg5
g6
sg7
(dp27
g9
g21
sg11
g12
sg13
g14
sg15
S'adj'
p28
ssba(i__main__
Morph_info
p29
(dp30
g3
S'ladakA'
p31
sg5
g6
sg7
(dp32
g9
g10
sg11
g12
sg13
g14
sg15
S'n'
p33
ssba(i__main__
Morph_info
p34
(dp35
g3
S'ladakA'
p36
sg5
g6
sg7
(dp37
g9
g21
sg11
g22
sg13
g14
sg15
g33
ssba.(lp0
(i__main__
Morph_info
p1
(dp2
S'root'
p3
S'ne'
p4
sS'word'
p5
S'ne'
p6
sS'morph_dic'
p7
(dp8
S'cat'
p9
S'prsg'
p10
ssba.(lp0
(i__main__
Morph_info
p1
(dp2
S'root'
p3
S'xe'
p4
sS'word'
p5
S'xo'
p6
sS'morph_dic'
p7
(dp8
S'tam'
p9
S'imper'
p10
sS'num'
p11
S's'
p12
sS'gen'
p13
S'm'
p14
sS'per'
p15
S'm_h1'
p16
sS'cat'
p17
S'v'
p18
ssba(i__main__
Morph_info
p19
(dp20
g3
S'xe'
p21
sg5
g6
sg7
(dp22
g9
S'subj'
p23
sg11
S'p'
p24
sg13
g14
sg15
g14
sg17
g18
ssba(i__main__
Morph_info
p25
(dp26
g3
S'xe'
p27
sg5
g6
sg7
(dp28
g9
S'imper'
p29
sg11
g24
sg13
g14
sg15
S'm_h1'
p30
sg17
g18
ssba(i__main__
Morph_info
p31
(dp32
g3
S'xe'
p33
sg5
g6
sg7
(dp34
g9
S'imper'
p35
sg11
g12
sg13
S'f'
p36
sg15
S'm_h1'
p37
sg17
g18
ssba(i__main__
Morph_info
p38
(dp39
g3
S'xe'
p40
sg5
g6
sg7
(dp41
g9
S'subj'
p42
sg11
g24
sg13
g36
sg15
g14
sg17
g18
ssba(i__main__
Morph_info
p43
(dp44
g3
S'xe'
p45
sg5
g6
sg7
(dp46
g9
S'imper'
p47
sg11
g24
sg13
g36
sg15
S'm_h1'
p48
sg17
g18
ssba.(lp0
(i__main__
Morph_info
p1
(dp2
S'root'
p3
S'nayA'
p4
sS'word'
p5
S'nayI'
p6
sS'morph_dic'
p7
(dp8
S'case'
p9
S'd'
p10
sS'num'
p11
S's'
p12
sS'gen'
p13
S'f'
p14
sS'cat'
p15
S'adj'
p16
ssba(i__main__
Morph_info
p17
(dp18
g3
S'nayA'
p19
sg5
g6
sg7
(dp20
g9
g10
sg11
S'p'
p21
sg13
g14
sg15
S'adj'
p22
ssba(i__main__
Morph_info
p23
(dp24
g3
S'nayA'
p25
sg5
g6
sg7
(dp26
g9
S'o'
p27
sg11
g12
sg13
g14
sg15
S'adj'
p28
ssba(i__main__
Morph_info
p29
(dp30
g3
S'nayA'
p31
sg5
g6
sg7
(dp32
g9
g27
sg11
g21
sg13
g14
sg15
S'adj'
p33
ssba(i__main__
Morph_info
p34
(dp35
g3
S'nayA'
p36
sg5
g6
sg7
(dp37
g9
g10
sg11
g12
sg13
g14
sg15
S'n'
p38
ssba(i__main__
Morph_info
p39
(dp40
g3
S'nayA'
p41
sg5
g6
sg7
(dp42
g9
g10
sg11
g21
sg13
g14
sg15
g38
ssba(i__main__
Morph_info
p43
(dp44
g3
S'nayA'
p45
sg5
g6
sg7
(dp46
g9
g27
sg11
g12
sg13
g14
sg15
g38
ssba(i__main__
Morph_info
p47
(dp48
g3
S'nayI'
p49
sg5
g6
sg7
(dp50
g9
g10
sg11
g12
sg13
g14
sg15
g38
ssba(i__main__
Morph_info
p51
(dp52
g3
S'nayI'
p53
sg5
g6
sg7
(dp54
g9
g27
sg11
g12
sg13
g14
sg15
g38
ssba.(lp0
(i__main__
Morph_info
p1
(dp2
S'root'
p3
S'kiwAba'
p4
sS'word'
p5
S'kiwAbeM'
p6
sS'morph_dic'
p7
(dp8
S'case'
p9
S'd'
p10
sS'num'
p11
S'p'
p12
sS'gen'
p13
S'f'
p14
sS'cat'
p15
S'n'
p16
ssba.(lp0
(i__main__
Morph_info
p1
(dp2
S'root'
p3
S'KarIxa'
p4
sS'word'
p5
S'KarIxI'
p6
sS'morph_dic'
p7
(dp8
S'tam'
p9
S'yA'
p10
sS'num'
p11
S's'
p12
sS'gen'
p13
S'f'
p14
sS'per'
p15
S'u'
p16
sS'cat'
p17
S'v'
p18
ssba(i__main__
Morph_info
p19
(dp20
g3
S'KarIxa'
p21
sg5
g6
sg7
(dp22
g9
S'yA'
p23
sg11
g12
sg13
g14
sg15
S'm'
p24
sg17
g18
ssba(i__main__
Morph_info
p25
(dp26
g3
S'KarIxa'
p27
sg5
g6
sg7
(dp28
g9
S'yA'
p29
sg11
g12
sg13
g14
sg15
S'm_h'
p30
sg17
g18
ssba(i__main__
Morph_info
p31
(dp32
g3
S'KarIxa'
p33
sg5
g6
sg7
(dp34
g9
S'yA'
p35
sg11
g12
sg13
g14
sg15
S'a'
p36
sg17
g18
ssba.(lp0
(i__main__
Morph_info
p1
(dp2
S'root'
p3
S'WA'
p4
sS'word'
p5
S'WI'
p6
sS'morph_dic'
p7
(dp8
S'tam'
p9
S'WA'
p10
sS'num'
p11
S's'
p12
sS'gen'
p13
S'f'
p14
sS'per'
p15
S'u'
p16
sS'cat'
p17
S'v'
p18
ssba(i__main__
Morph_info
p19
(dp20
g3
S'WA'
p21
sg5
g6
sg7
(dp22
g9
S'WA'
p23
sg11
g12
sg13
g14
sg15
S'm'
p24
sg17
g18
ssba(i__main__
Morph_info
p25
(dp26
g3
S'WA'
p27
sg5
g6
sg7
(dp28
g9
S'WA'
p29
sg11
g12
sg13
g14
sg15
S'm_h'
p30
sg17
g18
ssba(i__main__
Morph_info
p31
(dp32
g3
S'WA'
p33
sg5
g6
sg7
(dp34
g9
S'WA'
p35
sg11
g12
sg13
g14
sg15
S'a'
p36
sg17
g18
ssba.